Sjasm Z80 Assembler v0.42c - www.xl2s.tk             [2021.12.08 - 23:27:39]

src\sccLOFI_1c.asm
Errors: 0

       1   00:0000                      ;----------------------------------------------------------------------------
       2   00:0000                      ;----------------------------------------------------------------------------
       3   00:0000                      
       4   00:0000                      	
       5   00:0000  (00:FFFFFFFF)       frame_terminator	equ	-1
       6   00:0000                      
       7   00:0000                              output "sccLOFI_1c.rom"
       8   00:0000                      
       9   00:0000                      		defpage	 0,0x4000, 0x2000	; page 0 main code
      10   00:0000                      		defpage	 1,0x6000, 0x2000	; page 1 data
      11   00:0000                      		defpage	 2..3				; page 2-3 period data
      12   00:0000                      		defpage	 4,0x6000, 0x78000	; page 4-15 data
      13   00:0000                      
      14   00:0000                      
      15   00:0000                      ; memory layout
      16   00:0000                      ; 0x4000	- bank1 ascii mapper
      17   00:0000                      ; 0x6000	- bank2 ascii mapper
      18   00:0000                      ; 0x8000	- bank3 scc mapper
      19   00:0000                      ; 0xB000	- bank4 scc mapper (unused)
      20   00:0000                      
      21   00:0000                      
      22   00:0000                      
      23   00:0000  (00)                		page 0
      24   00:4000                              org 4000h
      25   00:4000                              dw  4241h,START,0,0,0,0,0
      25   00:4000  41 42 2C 40 00 00 00 00 00 00 00 00 00 00 
      26   00:400E                      
      27   00:400E                      ; ascii-8 registers
      28   00:400E                      ;	Bank 1: 6000h - 67FFh (6000h used)
      29   00:400E                      ;	Bank 2: 6800h - 6FFFh (6800h used)
      30   00:400E                      ;	Bank 3: 7000h - 77FFh (7000h used)
      31   00:400E                      ;	Bank 4: 7800h - 7FFFh (7800h used)
      32   00:400E                      
      33   00:400E                      
      34   00:400E                      ; ascii-8 mapper
      35   00:400E  (00:6000)           Bank1:  equ      6000h
      36   00:400E  (00:6800)           Bank2:  equ      6800h
      37   00:400E  (00:7000)           Bank3:  equ      7000h
      38   00:400E  (00:7800)           Bank4:  equ      7800h
      39   00:400E                      
      40   00:400E                      ; scc mapper for scc chip
      41   00:400E  (00:5000)           sccBank1:  equ      05000h
      42   00:400E  (00:7000)           sccBank2:  equ      07000h
      43   00:400E  (00:9000)           sccBank3:  equ      09000h
      44   00:400E  (00:B000)           sccBank4:  equ      0B000h
      45   00:400E                      
      46   00:400E                      
      47   00:400E                      ;-------------------------------------
      48   00:400E                      ; try to make rom guessers happy
      49   00:400E                      ;-------------------------------------
      50   00:400E                      init_mapper:
      51   00:400E  3E 00               		ld     a,init_mapper/02000h-2
      52   00:4010  32 00 60            		ld      (Bank1),a
      53   00:4013  32 00 50            		ld      (sccBank1),a
      54   00:4016  3C                  		inc		a
      55   00:4017  32 00 68            		ld      (Bank2),a
      56   00:401A  32 00 70            		ld      (sccBank2),a
      57   00:401D  3C                  		inc		a
      58   00:401E  32 00 70            		ld      (Bank3),a
      59   00:4021  32 00 90            		ld      (sccBank3),a
      60   00:4024  3C                  		inc		a
      61   00:4025  32 00 78            		ld      (Bank4),a
      62   00:4028  32 00 B0            		ld      (sccBank4),a
      63   00:402B  C9                  		ret
      64   00:402C                      
      65   00:402C                      ;-------------------------------------
      66   00:402C                      ; Entry point
      67   00:402C                      ;-------------------------------------
      68   00:402C                      START:
      69   00:402C  3E 28               		ld		a,40
      70   00:402E  32 AE F3            		ld		(0xF3AE),a	; screen width
      71   00:4031  AF                  		xor     a
      72   00:4032  CD 5F 00            		call    005Fh
      73   00:4035  AF                  		xor     a
      74   00:4036  32 DB F3            		ld		(0xF3DB),a	; no key click
      75   00:4039                      
      76   00:4039                      
      77   00:4039  CD BB 44            		call	search_slot
      78   00:403C  CD DA 44            		call	search_slotram
      79   00:403F  CD 23 46            		call    SCCsearch
      80   00:4042                      
      81   00:4042  CD 0E 40            		call	init_mapper
      82   00:4045                      
      83   00:4045  CD D1 40            		call	PrintSlots
      84   00:4048                      
      85   00:4048  3A 0B FD            		ld		a,(SCC)
      86   00:404B  3C                  		inc		a
      87   00:404C  20 0D               		jr		nz,scc_install
      88   00:404E                      
      89   00:404E                      no_scc:
      90   00:404E  11 CD 00            		ld		de,5*40+5
      91   00:4051  21 29 41            		ld		hl,noSCC_text
      92   00:4054  F3                  		di
      93   00:4055  CD 17 41            		call	message
      94   00:4058  FB                  		ei
      95   00:4059  18 16               		jr waitforhalfsec
      96   00:405B                      
      97   00:405B                      scc_install:
      98   00:405B  CD 36 46            		call	en_scc				; scc in page 2
      99   00:405E  F3                  		di
     100   00:405F  3E 3F               		ld      a,3Fh
     101   00:4061  32 00 90            		ld      (sccBank3),a
     102   00:4064  CD AF 44            		call    SccInit
     103   00:4067  CD A7 44            		call    SCCReplayerMute
     104   00:406A  CD 76 41            		call 	InstallIntHanlderScc
     105   00:406D  CD 4D 46            		call	en_slot
     106   00:4070  FB                  		ei
     107   00:4071                      waitforhalfsec:
     108   00:4071  06 1E               		ld	b,30
     109   00:4073  76                  1:		halt
     110   00:4074  10 FD               		djnz	1b
     111   00:4076  C9                  		ret
     112   00:4077                      
     113   00:4077                      
     114   00:4077                      
     115   00:4077                      
     116   00:4077                      ;-------------------------------------
     117   00:4077                      ; method that prints hl on screen
     118   00:4077                      ; to address de
     119   00:4077                      ;-------------------------------------
     120   00:4077                      		include PrintNum.asm
       1.  00:4077                      ;---------------------------------------------------------			
       2.  00:4077                      ; method that prints hl on screen
       3.  00:4077                      ; to address de
       4.  00:4077                      ;---------------------------------------------------------			
       5.  00:4077                      PrintNum:
       6.  00:4077  7B                          ld      a,e
       7.  00:4078  D3 99                       out     (99h),a
       8.  00:407A  7A                          ld      a,d
       9.  00:407B  E6 3F                       and     3Fh
      10.  00:407D  F6 40                       or      40h
      11.  00:407F  D3 99                       out     (99h),a
      12.  00:4081                      
      13.  00:4081  E5                          push    hl
      14.  00:4082  EB                          ex      de,hl
      15.  00:4083                      
      16.  00:4083  7A                          ld      a,d
      17.  00:4084  07                          rlca
      18.  00:4085  07                          rlca
      19.  00:4086  07                          rlca
      20.  00:4087  07                          rlca
      21.  00:4088  E6 0F                       and     15
      22.  00:408A  06 00                       ld      b,0
      23.  00:408C  4F                          ld      c,a
      24.  00:408D  21 C1 40                    ld      hl,Numbers
      25.  00:4090  09                          add     hl,bc
      26.  00:4091  7E                          ld      a,(hl)
      27.  00:4092  D3 98                       out     (98h),a
      28.  00:4094                      
      29.  00:4094  7A                          ld      a,d
      30.  00:4095  E6 0F                       and     15
      31.  00:4097  06 00                       ld      b,0
      32.  00:4099  4F                          ld      c,a
      33.  00:409A  21 C1 40                    ld      hl,Numbers
      34.  00:409D  09                          add     hl,bc
      35.  00:409E  7E                          ld      a,(hl)
      36.  00:409F  D3 98                       out     (98h),a
      37.  00:40A1                      
      38.  00:40A1  7B                          ld      a,e
      39.  00:40A2  07                          rlca
      40.  00:40A3  07                          rlca
      41.  00:40A4  07                          rlca
      42.  00:40A5  07                          rlca
      43.  00:40A6  E6 0F                       and     15
      44.  00:40A8  06 00                       ld      b,0
      45.  00:40AA  4F                          ld      c,a
      46.  00:40AB  21 C1 40                    ld      hl,Numbers
      47.  00:40AE  09                          add     hl,bc
      48.  00:40AF  7E                          ld      a,(hl)
      49.  00:40B0  D3 98                       out     (98h),a
      50.  00:40B2                      
      51.  00:40B2  7B                          ld      a,e
      52.  00:40B3  E6 0F                       and     15
      53.  00:40B5  06 00                       ld      b,0
      54.  00:40B7  4F                          ld      c,a
      55.  00:40B8  21 C1 40                    ld      hl,Numbers
      56.  00:40BB  09                          add     hl,bc
      57.  00:40BC  7E                          ld      a,(hl)
      58.  00:40BD  D3 98                       out     (98h),a
      59.  00:40BF                      
      60.  00:40BF  E1                          pop     hl
      61.  00:40C0  C9                          ret
      62.  00:40C1                      
      63.  00:40C1                      Numbers:
      64.  00:40C1                              db  "0123456789ABCDEF"
      64.  00:40C1  30 31 32 33 34 35 36 37 38 39 41 42 43 44 45 46 
      65.  00:40D1                      
     121   00:40D1                      		include PrintSlots.asm
       1.  00:40D1                      		
       2.  00:40D1                      		
       3.  00:40D1                      PrintSlots:		
       4.  00:40D1  11 40 01            		ld		de,40*8
       5.  00:40D4  21 55 41            		ld		hl,scc_slot_text
       6.  00:40D7  CD 17 41            		call	message
       7.  00:40DA  11 4A 01                    ld      de,40*8+10
       8.  00:40DD  2A 0B FD            		ld		hl,(SCC)
       9.  00:40E0  26 00               		ld		h,0
      10.  00:40E2  CD 77 40                    call    PrintNum
      11.  00:40E5                      
      12.  00:40E5  11 68 01            		ld		de,40*9
      13.  00:40E8  21 60 41            		ld		hl,rom_slot_text
      14.  00:40EB  CD 17 41            		call	message
      15.  00:40EE  11 72 01                    ld      de,40*9+10
      16.  00:40F1  2A 09 FD            		ld		hl,(slotvar)
      17.  00:40F4  26 00               		ld		h,0
      18.  00:40F6  CD 77 40                    call    PrintNum
      19.  00:40F9                      
      20.  00:40F9  11 90 01            		ld		de,40*10
      21.  00:40FC  21 6B 41            		ld		hl,ram_slot_text
      22.  00:40FF  CD 17 41            		call	message
      23.  00:4102  11 9A 01                    ld      de,40*10+10
      24.  00:4105  2A 0A FD            		ld		hl,(slotram)
      25.  00:4108  26 00               		ld		h,0
      26.  00:410A  CD 77 40                    call    PrintNum
      27.  00:410D                      		
      28.  00:410D  11 7D 00            		ld		de,3*40+5
      29.  00:4110  21 3A 41            		ld		hl,instruction_text
      30.  00:4113  CD 17 41            		call	message
      31.  00:4116                      
      32.  00:4116  C9                  		ret
      33.  00:4117                      		
      34.  00:4117                      
      35.  00:4117                      ;-------------------------------------
      36.  00:4117                      ;-------------------------------------
      37.  00:4117                      message:
      38.  00:4117  7B                          ld      a,e
      39.  00:4118  D3 99                       out     (99h),a
      40.  00:411A  7A                          ld      a,d
      41.  00:411B  E6 3F                       and     3Fh
      42.  00:411D  F6 40                       or      40h
      43.  00:411F  D3 99                       out     (99h),a
      44.  00:4121                      
      45.  00:4121  7E                  1:		ld		a,(hl)
      46.  00:4122  A7                  		and		a
      47.  00:4123  C8                  		ret		z
      48.  00:4124  D3 98               		out     (98h),a
      49.  00:4126  23                  		inc		hl
      50.  00:4127  18 F8               		jr		1b
      51.  00:4129                      		
      52.  00:4129                      noSCC_text:
      53.  00:4129                      		db "No SCC detected.",0
      53.  00:4129  4E 6F 20 53 43 43 20 64 65 74 65 63 74 65 64 2E 
      53.  00:4139  00 
      54.  00:413A                      instruction_text:
      55.  00:413A                      		db "use USR0(n) with n 0,1,...",0
      55.  00:413A  75 73 65 20 55 53 52 30 28 6E 29 20 77 69 74 68 
      55.  00:414A  20 6E 20 30 2C 31 2C 2E 2E 2E 00 
      56.  00:4155                      scc_slot_text:
      57.  00:4155                      		db	"Scc slot: ",0
      57.  00:4155  53 63 63 20 73 6C 6F 74 3A 20 00 
      58.  00:4160                      rom_slot_text:
      59.  00:4160                      		db	"Rom slot: ",0
      59.  00:4160  52 6F 6D 20 73 6C 6F 74 3A 20 00 
      60.  00:416B                      ram_slot_text:
      61.  00:416B                      		db	"Ram slot: ",0
      61.  00:416B  52 61 6D 20 73 6C 6F 74 3A 20 00 
      62.  00:4176                      		
     122   00:4176                      
     123   00:4176                      ;-------------------------------------
     124   00:4176                      
     125   00:4176                      InstallIntHanlderScc:
     126   00:4176  F3                  		di
     127   00:4177  21 25 42            		ld      hl,ISRScc
     128   00:417A  22 9C FD            		ld      ($FD9C),hl
     129   00:417D                      
     130   00:417D  3E F7               		ld      a,0xF7
     131   00:417F  32 9A FD            		ld      ($FD9A),a
     132   00:4182  3A 09 FD            		ld		a,(slotvar)
     133   00:4185  32 9B FD            		ld		($FD9B),a
     134   00:4188  3E C9               		ld      a,0xC9
     135   00:418A  32 9E FD            		ld      ($FD9E),a
     136   00:418D                      
     137   00:418D  21 0E FD            		ld		hl,USR0
     138   00:4190  22 9A F3            		ld		(0xF39A),hl
     139   00:4193                      
     140   00:4193  3E F7               		ld      a,0xF7
     141   00:4195  32 0E FD            		ld      (USR0+0),a
     142   00:4198  3A 09 FD            		ld		a,(slotvar)
     143   00:419B  32 0F FD            		ld		(USR0+1),a
     144   00:419E  21 AB 41            		ld      hl,HandleUsr
     145   00:41A1  22 10 FD            		ld      (USR0+2),hl
     146   00:41A4  3E C9               		ld      a,0xC9
     147   00:41A6  32 12 FD            		ld      (USR0+4),a
     148   00:41A9  FB                  		ei
     149   00:41AA  C9                  		ret
     150   00:41AB                      
     151   00:41AB                      ;-------------------------------------
     152   00:41AB                      
     153   00:41AB                      
     154   00:41AB                      HandleUsr:
     155   00:41AB  3A 63 F6            		ld		a,(0xF663)
     156   00:41AE  FE 02               		cp		2
     157   00:41B0  C0                  		ret		nz				; CF = 0
     158   00:41B1                      
     159   00:41B1  2A F8 F7            		ld		hl,(0xF7F8)		; Initialize replayer
     160   00:41B4  11 04 00            		ld  	de,nfiles
     161   00:41B7  ED 52               		sbc		hl,de
     162   00:41B9  D0                  		ret		nc				; error: sfx not present
     163   00:41BA  19                  		add 	hl,de			; in : hl  # of Sfx
     164   00:41BB                      
     165   00:41BB  5D                  		ld		e,l
     166   00:41BC  54                  		ld		d,h
     167   00:41BD  29                  		add		hl,hl
     168   00:41BE  19                  		add		hl,de			
     169   00:41BF  29                  		add		hl,hl			; Sfx# * 6 + frames
     170   00:41C0  11 DB 46            		ld		de,frames
     171   00:41C3  19                  		add		hl,de
     172   00:41C4  01 06 00            		ld		bc,6
     173   00:41C7                      
     174   00:41C7  3A 13 FD            		ld      a,(S988F)
     175   00:41CA  E6 01               		and		1
     176   00:41CC  C2 DD 41            		jp		nz,test_ch2
     177   00:41CF                      								; play sfx on channel 1
     178   00:41CF  11 14 FD            		ld		de,PAG_FRAME1
     179   00:41D2  ED B0               		ldir
     180   00:41D4                      
     181   00:41D4  3A 13 FD            		ld      a,(S988F)
     182   00:41D7  F6 01               		or		1
     183   00:41D9  32 13 FD            		ld      (S988F),a
     184   00:41DC  C9                  		ret
     185   00:41DD                      test_ch2:
     186   00:41DD  3A 13 FD            		ld      a,(S988F)
     187   00:41E0  E6 02               		and		2
     188   00:41E2  C2 F3 41            		jp		nz,test_ch3
     189   00:41E5                      								; play sfx on channel 2
     190   00:41E5  11 1A FD            		ld		de,PAG_FRAME2
     191   00:41E8  ED B0               		ldir
     192   00:41EA                      
     193   00:41EA  3A 13 FD            		ld      a,(S988F)
     194   00:41ED  F6 02               		or		2
     195   00:41EF  32 13 FD            		ld      (S988F),a
     196   00:41F2  C9                  		ret
     197   00:41F3                      test_ch3:
     198   00:41F3  3A 13 FD            		ld      a,(S988F)
     199   00:41F6  E6 04               		and		4
     200   00:41F8  C2 09 42            		jp		nz,test_ch4
     201   00:41FB                      								; play sfx on channel 3
     202   00:41FB  11 20 FD            		ld		de,PAG_FRAME3
     203   00:41FE  ED B0               		ldir
     204   00:4200                      
     205   00:4200  3A 13 FD            		ld      a,(S988F)
     206   00:4203  F6 04               		or		4
     207   00:4205  32 13 FD            		ld      (S988F),a
     208   00:4208  C9                  		ret
     209   00:4209                      test_ch4:
     210   00:4209  3A 13 FD            		ld      a,(S988F)
     211   00:420C  E6 08               		and		8
     212   00:420E  20 0E               		jr		nz,ch_error		; no channels to play
     213   00:4210                      								; play sfx on channel 4
     214   00:4210  11 26 FD            		ld		de,PAG_FRAME4
     215   00:4213  ED B0               		ldir
     216   00:4215                      
     217   00:4215  3A 13 FD            		ld      a,(S988F)
     218   00:4218  F6 08               		or		8
     219   00:421A  32 13 FD            		ld      (S988F),a
     220   00:421D  C9                  		ret
     221   00:421E                      ch_error:
     222   00:421E  21 FF FF            		ld		hl,-1
     223   00:4221  22 F8 F7            		ld		(0xF7F8),hl		; report replayer error 
     224   00:4224  C9                  		ret
     225   00:4225                      
     226   00:4225                      ;-------------------------------------
     227   00:4225                      
     228   00:4225                      
     229   00:4225                      ISRScc:
     230   00:4225  CD 36 46            		call	en_scc				; scc in page 2
     231   00:4228  3E 3F               		ld      a,3Fh
     232   00:422A  32 00 90            		ld      (sccBank3),a		; scc registers in page 2
     233   00:422D  3A 13 FD            		ld      a,(S988F)
     234   00:4230  32 8F 98            		ld      (988Fh),a
     235   00:4233                      
     236   00:4233  3A 13 FD            		ld      a,(S988F)
     237   00:4236  E6 01               		and		1
     238   00:4238  C4 57 42            		call    nz,ReplayerUpdateScc1
     239   00:423B  3A 13 FD            		ld      a,(S988F)
     240   00:423E  E6 02               		and		2
     241   00:4240  C4 EB 42            		call    nz,ReplayerUpdateScc2
     242   00:4243  3A 13 FD            		ld      a,(S988F)
     243   00:4246  E6 04               		and		4
     244   00:4248  C4 7F 43            		call    nz,ReplayerUpdateScc3
     245   00:424B  3A 13 FD            		ld      a,(S988F)
     246   00:424E  E6 08               		and		8
     247   00:4250  C4 13 44            		call    nz,ReplayerUpdateScc4
     248   00:4253                      
     249   00:4253  CD 4D 46            		call	en_slot
     250   00:4256  C9                  		ret
     251   00:4257                      
     252   00:4257                      ;-------------------------------------
     253   00:4257                      ReplayerUpdateScc1:
     254   00:4257  3A 15 FD            		ld		a,(PAG_PERIOD1)
     255   00:425A  32 00 68            		ld		(Bank2),a
     256   00:425D  32 00 70            		ld      (sccBank2),a
     257   00:4260  2A 18 FD            		ld		hl,(PNT_PERIOD1)
     258   00:4263  5E                  		ld		e,(hl)
     259   00:4264  23                  		inc 	hl
     260   00:4265  56                  		ld  	d,(hl)
     261   00:4266  23                  		inc 	hl
     262   00:4267  22 18 FD            		LD		(PNT_PERIOD1),HL
     263   00:426A  21 FF FF            		ld		hl,-1				; frame terminator
     264   00:426D  B7                  		or		a
     265   00:426E  ED 52               		sbc		hl,de
     266   00:4270  CA DF 42            		JP		Z,SCCReplayerMute1
     267   00:4273  3E 0F               		ld		a,15
     268   00:4275  32 8A 98            		ld		(988Ah),a			; volume ch1
     269   00:4278  D5                  		push	de
     270   00:4279  3A 14 FD            		ld		a,(PAG_FRAME1)
     271   00:427C  32 00 68            		ld		(Bank2),a
     272   00:427F  32 00 70            		ld      (sccBank2),a
     273   00:4282  2A 16 FD            		ld		hl,(PNT_FRAME1)
     274   00:4285  11 00 98            		ld		de,9800h			; wave ch1
     275   00:4288  C1                  		pop 	bc
     276   00:4289  03                  		inc		bc
     277   00:428A  ED A0               		ldi
     278   00:428C  ED 43 80 98         		ld		(9880h),bc			; period ch1 and phase reset
     279   00:4290                      [31]	ldi
     279   00:4290  ED A0 ED A0 ED A0 ED A0 ED A0 ED A0 ED A0 ED A0 
     279   00:42A0  ED A0 ED A0 ED A0 ED A0 ED A0 ED A0 ED A0 ED A0 
     279   00:42B0  ED A0 ED A0 ED A0 ED A0 ED A0 ED A0 ED A0 ED A0 
     279   00:42C0  ED A0 ED A0 ED A0 ED A0 ED A0 ED A0 ED A0 
     280   00:42CE  CB 7C               		bit     7,h					; test page crossing
     281   00:42D0  C4 D7 42                    call    nz,ReplayerNextPage1
     282   00:42D3  22 16 FD            		ld      (PNT_FRAME1),hl
     283   00:42D6  C9                  		ret
     284   00:42D7                      ; Moves sample pointer to next page
     285   00:42D7                      ReplayerNextPage1:
     286   00:42D7  21 14 FD                    ld      hl,PAG_FRAME1
     287   00:42DA  34                          inc     (hl)
     288   00:42DB  21 00 60                    ld      hl,06000h
     289   00:42DE  C9                          ret
     290   00:42DF                      ; Mute replayer
     291   00:42DF                      SCCReplayerMute1:
     292   00:42DF  3A 13 FD            		ld      a,(S988F)
     293   00:42E2  E6 FE               		and		0xFE
     294   00:42E4  32 13 FD            		ld      (S988F),a
     295   00:42E7  32 8F 98            		ld      (988Fh),a		; mute ch1
     296   00:42EA  C9                  		ret
     297   00:42EB                      
     298   00:42EB                      ;-------------------------------------
     299   00:42EB                      ReplayerUpdateScc2:
     300   00:42EB  3A 1B FD            		ld		a,(PAG_PERIOD2)
     301   00:42EE  32 00 68            		ld		(Bank2),a
     302   00:42F1  32 00 70            		ld      (sccBank2),a
     303   00:42F4  2A 1E FD            		ld		hl,(PNT_PERIOD2)
     304   00:42F7  5E                  		ld		e,(hl)
     305   00:42F8  23                  		inc 	hl
     306   00:42F9  56                  		ld  	d,(hl)
     307   00:42FA  23                  		inc 	hl
     308   00:42FB  22 1E FD            		LD		(PNT_PERIOD2),HL
     309   00:42FE  21 FF FF            		ld		hl,-1				; frame terminator
     310   00:4301  B7                  		or		a
     311   00:4302  ED 52               		sbc		hl,de
     312   00:4304  CA 73 43            		JP		Z,SCCReplayerMute2
     313   00:4307  3E 0F               		ld		a,15
     314   00:4309  32 8B 98            		ld		(988Bh),a			; volume ch2
     315   00:430C  D5                  		push	de
     316   00:430D  3A 1A FD            		ld		a,(PAG_FRAME2)
     317   00:4310  32 00 68            		ld		(Bank2),a
     318   00:4313  32 00 70            		ld      (sccBank2),a
     319   00:4316  2A 1C FD            		ld		hl,(PNT_FRAME2)
     320   00:4319  11 20 98            		ld		de,9820h			; wave ch2
     321   00:431C  C1                  		pop		bc
     322   00:431D  03                  		inc		bc
     323   00:431E  ED A0               		ldi
     324   00:4320  ED 43 82 98         		ld		(9882h),bc			; period ch2 and phase reset
     325   00:4324                      [31]	ldi
     325   00:4324  ED A0 ED A0 ED A0 ED A0 ED A0 ED A0 ED A0 ED A0 
     325   00:4334  ED A0 ED A0 ED A0 ED A0 ED A0 ED A0 ED A0 ED A0 
     325   00:4344  ED A0 ED A0 ED A0 ED A0 ED A0 ED A0 ED A0 ED A0 
     325   00:4354  ED A0 ED A0 ED A0 ED A0 ED A0 ED A0 ED A0 
     326   00:4362  CB 7C                       bit     7,h					; test page crossing
     327   00:4364  C4 6B 43                    call    nz,ReplayerNextPage2
     328   00:4367  22 1C FD            		ld      (PNT_FRAME2),hl
     329   00:436A  C9                  		ret
     330   00:436B                      ; Moves sample pointer to next page
     331   00:436B                      ReplayerNextPage2:
     332   00:436B  21 1A FD                    ld      hl,PAG_FRAME2
     333   00:436E  34                          inc     (hl)
     334   00:436F  21 00 60                    ld      hl,06000h
     335   00:4372  C9                          ret
     336   00:4373                      ; Mute replayer
     337   00:4373                      SCCReplayerMute2:
     338   00:4373  3A 13 FD            		ld      a,(S988F)
     339   00:4376  E6 FD               		and		0xFD
     340   00:4378  32 13 FD            		ld      (S988F),a
     341   00:437B  32 8F 98            		ld      (988Fh),a		; mute ch2
     342   00:437E  C9                  		ret
     343   00:437F                      
     344   00:437F                      ;-------------------------------------
     345   00:437F                      ReplayerUpdateScc3:
     346   00:437F  3A 21 FD            		ld		a,(PAG_PERIOD3)
     347   00:4382  32 00 68            		ld		(Bank2),a
     348   00:4385  32 00 70            		ld      (sccBank2),a
     349   00:4388  2A 24 FD            		ld		hl,(PNT_PERIOD3)
     350   00:438B  5E                  		ld		e,(hl)
     351   00:438C  23                  		inc 	hl
     352   00:438D  56                  		ld  	d,(hl)
     353   00:438E  23                  		inc 	hl
     354   00:438F  22 24 FD            		LD		(PNT_PERIOD3),HL
     355   00:4392  21 FF FF            		ld		hl,-1				; frame terminator
     356   00:4395  B7                  		or		a
     357   00:4396  ED 52               		sbc		hl,de
     358   00:4398  CA 07 44            		JP		Z,SCCReplayerMute3
     359   00:439B  3E 0F               		ld		a,15
     360   00:439D  32 8C 98            		ld		(988Ch),a			; volume ch3
     361   00:43A0  D5                  		push	de
     362   00:43A1  3A 20 FD            		ld		a,(PAG_FRAME3)
     363   00:43A4  32 00 68            		ld		(Bank2),a
     364   00:43A7  32 00 70            		ld      (sccBank2),a
     365   00:43AA  2A 22 FD            		ld		hl,(PNT_FRAME3)
     366   00:43AD  11 40 98            		ld		de,9840h			; wave ch13
     367   00:43B0  C1                  		pop		bc
     368   00:43B1  03                  		inc		bc
     369   00:43B2  ED A0               		ldi
     370   00:43B4  ED 43 84 98         		ld		(9884h),bc			; period ch3 and phase reset
     371   00:43B8                      [31]	ldi
     371   00:43B8  ED A0 ED A0 ED A0 ED A0 ED A0 ED A0 ED A0 ED A0 
     371   00:43C8  ED A0 ED A0 ED A0 ED A0 ED A0 ED A0 ED A0 ED A0 
     371   00:43D8  ED A0 ED A0 ED A0 ED A0 ED A0 ED A0 ED A0 ED A0 
     371   00:43E8  ED A0 ED A0 ED A0 ED A0 ED A0 ED A0 ED A0 
     372   00:43F6  CB 7C                       bit     7,h					; test page crossing
     373   00:43F8  C4 FF 43                    call    nz,ReplayerNextPage3
     374   00:43FB  22 22 FD            		ld      (PNT_FRAME3),hl
     375   00:43FE  C9                  		ret
     376   00:43FF                      ; Moves sample pointer to next page
     377   00:43FF                      ReplayerNextPage3:
     378   00:43FF  21 20 FD                    ld      hl,PAG_FRAME3
     379   00:4402  34                          inc     (hl)
     380   00:4403  21 00 60                    ld      hl,06000h
     381   00:4406  C9                          ret
     382   00:4407                      ; Mute replayer
     383   00:4407                      SCCReplayerMute3:
     384   00:4407  3A 13 FD            		ld      a,(S988F)
     385   00:440A  E6 FB               		and		0xFB
     386   00:440C  32 13 FD            		ld      (S988F),a
     387   00:440F  32 8F 98            		ld      (988Fh),a		; mute ch3
     388   00:4412  C9                  		ret
     389   00:4413                      		
     390   00:4413                      ;-------------------------------------
     391   00:4413                      ReplayerUpdateScc4:
     392   00:4413  3A 27 FD            		ld		a,(PAG_PERIOD4)
     393   00:4416  32 00 68            		ld		(Bank2),a
     394   00:4419  32 00 70            		ld      (sccBank2),a
     395   00:441C  2A 2A FD            		ld		hl,(PNT_PERIOD4)
     396   00:441F  5E                  		ld		e,(hl)
     397   00:4420  23                  		inc 	hl
     398   00:4421  56                  		ld  	d,(hl)
     399   00:4422  23                  		inc 	hl
     400   00:4423  22 2A FD            		LD		(PNT_PERIOD4),HL
     401   00:4426  21 FF FF            		ld		hl,-1				; frame terminator
     402   00:4429  B7                  		or		a
     403   00:442A  ED 52               		sbc		hl,de
     404   00:442C  CA 9B 44            		JP		Z,SCCReplayerMute4
     405   00:442F  3E 0F               		ld		a,15
     406   00:4431  32 8D 98            		ld		(988Dh),a			; volume ch4
     407   00:4434  D5                  		push	de
     408   00:4435  3A 26 FD            		ld		a,(PAG_FRAME4)
     409   00:4438  32 00 68            		ld		(Bank2),a
     410   00:443B  32 00 70            		ld      (sccBank2),a
     411   00:443E  2A 28 FD            		ld		hl,(PNT_FRAME4)
     412   00:4441  11 60 98            		ld		de,9860h			; wave ch14
     413   00:4444  C1                  		pop		bc
     414   00:4445  03                  		inc		bc
     415   00:4446  ED A0               		ldi 
     416   00:4448  ED 43 86 98         		ld		(9886h),bc			; period ch4 and phase reset
     417   00:444C                      [31]	ldi
     417   00:444C  ED A0 ED A0 ED A0 ED A0 ED A0 ED A0 ED A0 ED A0 
     417   00:445C  ED A0 ED A0 ED A0 ED A0 ED A0 ED A0 ED A0 ED A0 
     417   00:446C  ED A0 ED A0 ED A0 ED A0 ED A0 ED A0 ED A0 ED A0 
     417   00:447C  ED A0 ED A0 ED A0 ED A0 ED A0 ED A0 ED A0 
     418   00:448A  CB 7C                       bit     7,h					; test page crossing
     419   00:448C  C4 93 44                    call    nz,ReplayerNextPage4
     420   00:448F  22 28 FD            		ld      (PNT_FRAME4),hl
     421   00:4492  C9                  		ret
     422   00:4493                      ; Moves sample pointer to next page
     423   00:4493                      ReplayerNextPage4:
     424   00:4493  21 26 FD                    ld      hl,PAG_FRAME4
     425   00:4496  34                          inc     (hl)
     426   00:4497  21 00 60                    ld      hl,06000h
     427   00:449A  C9                          ret
     428   00:449B                      ; Mute replayer
     429   00:449B                      SCCReplayerMute4:
     430   00:449B  3A 13 FD            		ld      a,(S988F)
     431   00:449E  E6 F7               		and		0xF7
     432   00:44A0  32 13 FD            		ld      (S988F),a
     433   00:44A3  32 8F 98            		ld      (988Fh),a		; mute ch4
     434   00:44A6  C9                  		ret
     435   00:44A7                      
     436   00:44A7                      
     437   00:44A7                      
     438   00:44A7                      ;-------------------------------------
     439   00:44A7                      ; Mute replayer
     440   00:44A7                      ;-------------------------------------
     441   00:44A7                      SCCReplayerMute:
     442   00:44A7  AF                  		xor		a
     443   00:44A8  32 13 FD            		ld      (S988F),a
     444   00:44AB  32 8F 98            		ld      (988Fh),a		; mute all
     445   00:44AE  C9                  		ret
     446   00:44AF                      
     447   00:44AF                      ;-------------------------------------
     448   00:44AF                      ; Initialize the scc
     449   00:44AF                      ;-------------------------------------
     450   00:44AF                      SccInit:
     451   00:44AF                      ;;;;;;;;;;;;;;;;;;;;;;;;;;;;;;;;;;;;;;;;;;;;;;;;;;;;;;;;;;;;
     452   00:44AF                      ;
     453   00:44AF                      ; 	LATER NOTE: DO NOT RESET THE SAMPLE PHASE IN ORDER TO REDUCE DISCONTINUITY BETWEEN WAVES
     454   00:44AF                      ;
     455   00:44AF                      ;		ld		a,00100000b         ; Reset phase when freq is written
     456   00:44AF                      ;		ld		(98E0h),a			; on SCC
     457   00:44AF                      ;		ld		(98C0h),a			; on SCC+ in SCC mode
     458   00:44AF                      
     459   00:44AF                      		; ld      a,00001111b     	; scc channel 1,2,3,4 active
     460   00:44AF                      		; ld      (988Fh),a
     461   00:44AF                      
     462   00:44AF                      		; xor	a
     463   00:44AF                      		; ld		(988Ah),a				; volume ch1
     464   00:44AF                      		; ld		(988Bh),a				; volume ch2
     465   00:44AF                      		; ld		(988Ch),a				; volume ch3
     466   00:44AF                      		; ld		(988Dh),a				; volume ch3
     467   00:44AF                      
     468   00:44AF  C9                          ret
     469   00:44B0                      
     470   00:44B0                      ;-------------------------------------
     471   00:44B0                      ;		audio data
     472   00:44B0                      ;
     473   00:44B0  (00)                		page 0
     474   00:46DB                      frames:
     475   00:46DB                      		include all_data_files_index.asm
       1.  00:46DB                          ; Wave_incoming.wav
       2.  00:46DB  06 01                   db data1 / 02000h+1,:period1
       3.  00:46DD  C0 6D E2 64             dw 06000h+(data1 & 01FFFh),period1
       4.  00:46E1                          ; completed.wav
       5.  00:46E1  04 01                   db data2 / 02000h+1,:period2
       6.  00:46E3  60 7D D8 61             dw 06000h+(data2 & 01FFFh),period2
       7.  00:46E7                          ; lowhealth.wav
       8.  00:46E7  05 01                   db data3 / 02000h+1,:period3
       9.  00:46E9  00 7A A4 63             dw 06000h+(data3 & 01FFFh),period3
      10.  00:46ED                          ; radiation.wav
      11.  00:46ED  04 01                   db data4 / 02000h+1,:period4
      12.  00:46EF  00 60 00 60             dw 06000h+(data4 & 01FFFh),period4
      13.  00:46F3  (00:0004)           nfiles: equ  4 
      14.  00:46F3                      
     476   00:46F3                      
     477   00:46F3                      		page 1..3
     478   01:6000                      		include all_data_files_periods.asm
       1.  01:6000                          CODE
       2.  01:64E2                      period1:
       3.  01:64E2                          dw 0x0FFF,0x0FFF,0x0FFF,0x0FFF,0x0FFF,0x0FFF,0x01C1,0x037E,0x023B,0x0244,0x02C0,0x02C0,0x02C0,0x02C0,0x02BB,0x02B6,0x02B0,0x02B0,0x02AB,0x02A6,0x02A1,0x029C,0x0297,0x0292,0x0292,0x028D,0x0288,0x0288,0x0288,0x0288,0x0288,0x028D,0x028D,0x0292,0x0297,0x029C,0x02AB,0x02B6,0x02B6,0x02BB,0x02C5,0x02D5,0x02E6,0x02F1,0x0302,0x032C,0x0357,0x0357,0x034B,0x036B,0x036B,0x036B,0x01A1,0x01C8,0x0FFF,0x0FFF,0x0FFF,0x0FFF,0x0FFF,0x0FFF,0x0FFF,0x0FFF,0x0FFF,0x0FFF,0x0FFF,0x036B,0x0371,0x023F,0x023B,0x023B,0x0237,0x0237,0x0232,0x022E,0x022A,0x0222,0x021E,0x021E,0x021E,0x0222,0x022A,0x0232,0x023F,0x0248,0x0251,0x025A,0x0263,0x0267,0x0271,0x0275,0x027F,0x0284,0x0288,0x0288,0x0288,0x0288,0x0288,0x050A,0x028D,0x0297,0x0531,0x0545,0x034B,0x036B,0x01B1,0x0297,0x0297,0x0297,0x0297,0x029C,0x02A1,0x0531,0x029C,0x02A1,0x02A6,0x02A6,0x02AB,0x02B0,0x02B6,0x02BB,0x02C0,0x02C5,0x02D0,0x02D5,0x02DB,0x02E6,0x0302,0x037E
       3.  01:64E2  FF 0F FF 0F FF 0F FF 0F FF 0F FF 0F C1 01 7E 03 
       3.  01:64F2  3B 02 44 02 C0 02 C0 02 C0 02 C0 02 BB 02 B6 02 
       3.  01:6502  B0 02 B0 02 AB 02 A6 02 A1 02 9C 02 97 02 92 02 
       3.  01:6512  92 02 8D 02 88 02 88 02 88 02 88 02 88 02 8D 02 
       3.  01:6522  8D 02 92 02 97 02 9C 02 AB 02 B6 02 B6 02 BB 02 
       3.  01:6532  C5 02 D5 02 E6 02 F1 02 02 03 2C 03 57 03 57 03 
       3.  01:6542  4B 03 6B 03 6B 03 6B 03 A1 01 C8 01 FF 0F FF 0F 
       3.  01:6552  FF 0F FF 0F FF 0F FF 0F FF 0F FF 0F FF 0F FF 0F 
       3.  01:6562  FF 0F 6B 03 71 03 3F 02 3B 02 3B 02 37 02 37 02 
       3.  01:6572  32 02 2E 02 2A 02 22 02 1E 02 1E 02 1E 02 22 02 
       3.  01:6582  2A 02 32 02 3F 02 48 02 51 02 5A 02 63 02 67 02 
       3.  01:6592  71 02 75 02 7F 02 84 02 88 02 88 02 88 02 88 02 
       3.  01:65A2  88 02 0A 05 8D 02 97 02 31 05 45 05 4B 03 6B 03 
       3.  01:65B2  B1 01 97 02 97 02 97 02 97 02 9C 02 A1 02 31 05 
       3.  01:65C2  9C 02 A1 02 A6 02 A6 02 AB 02 B0 02 B6 02 BB 02 
       3.  01:65D2  C0 02 C5 02 D0 02 D5 02 DB 02 E6 02 02 03 7E 03 
       4.  01:65E2  FF FF                   dw -1 ; frame terminator 
       5.  01:65E4                          CODE
       6.  01:61D8                      period2:
       7.  01:61D8                          dw 0x01D6,0x0244,0x0251,0x0251,0x0251,0x0248,0x023F,0x0237,0x0232,0x022A,0x0226,0x016A,0x016A,0x012C,0x012C,0x016A,0x016C,0x016C,0x022E,0x0237,0x025A,0x026C,0x0275,0x027A,0x027A,0x02AB,0x02B6,0x02AB,0x02A6,0x021A,0x021E,0x0226,0x022A,0x0232,0x025A,0x0263,0x0288,0x02CB,0x0468,0x049C,0x01C8,0x01C5,0x01D2,0x01DA,0x048A,0x0248,0x0251,0x0255,0x025A,0x025E,0x0267,0x027A,0x02A1,0x02BB,0x02CB,0x02C5,0x01CC,0x01AA,0x0344,0x0344,0x0332,0x0320,0x031A,0x0320,0x0320,0x0320,0x020E,0x020E,0x020E,0x020E,0x01A4,0x021A,0x0FFF,0x0FFF,0x0FFF,0x0FFF,0x0FFF,0x0FFF,0x0FFF,0x0FFF,0x0FFF,0x0FFF,0x0FFF,0x0FFF,0x0FFF,0x0FFF,0x0FFF,0x0FFF,0x04B6,0x04B6,0x0271,0x026C,0x0267,0x0267,0x0263,0x0263,0x025E,0x025E,0x0267,0x027A,0x02A6,0x02B6,0x0275,0x0267,0x0267,0x0267,0x026C,0x0267,0x0263,0x0263,0x02D5,0x01D2,0x01D2,0x01B4,0x045F,0x01DD,0x01EF,0x01FB,0x020A,0x021E,0x024C,0x02A1,0x02BB,0x02CB,0x02E0,0x02F7,0x02FC,0x0167,0x01E1,0x01EC,0x01FE,0x0216,0x0222,0x021E,0x02B0,0x01A1,0x01A4,0x01A4,0x01D6,0x01D2,0x01D2,0x01A1,0x01A1,0x02BB,0x0FFF,0x0FFF,0x0FFF,0x0FFF,0x0FFF,0x0FFF,0x0FFF,0x0FFF,0x0FFF,0x0FFF,0x0FFF,0x0FFF,0x0FFF,0x0FFF,0x0FFF,0x0FFF,0x03A1,0x01DA,0x01EC,0x01EF,0x0244,0x0251,0x0251,0x0251,0x024C,0x023F,0x0237,0x022E,0x0226,0x0226,0x016A,0x016A,0x012C,0x012C,0x016C,0x016C,0x016F,0x022E,0x0237,0x025A,0x026C,0x0275,0x027A,0x027A,0x02AB,0x02B6,0x02AB,0x02A6,0x021A,0x021E,0x0226,0x022A,0x0232,0x025A,0x0263,0x0288,0x02CB,0x0468,0x04A4,0x02BB,0x01C8,0x01D6,0x01DA,0x048A,0x0248,0x0251,0x0255,0x025A,0x025E,0x0267,0x027A,0x02A6,0x02BB,0x02CB,0x02C5,0x01CF,0x01AE,0x0344,0x0344,0x0332,0x0320,0x031A,0x0320,0x0320,0x0320
       7.  01:61D8  D6 01 44 02 51 02 51 02 51 02 48 02 3F 02 37 02 
       7.  01:61E8  32 02 2A 02 26 02 6A 01 6A 01 2C 01 2C 01 6A 01 
       7.  01:61F8  6C 01 6C 01 2E 02 37 02 5A 02 6C 02 75 02 7A 02 
       7.  01:6208  7A 02 AB 02 B6 02 AB 02 A6 02 1A 02 1E 02 26 02 
       7.  01:6218  2A 02 32 02 5A 02 63 02 88 02 CB 02 68 04 9C 04 
       7.  01:6228  C8 01 C5 01 D2 01 DA 01 8A 04 48 02 51 02 55 02 
       7.  01:6238  5A 02 5E 02 67 02 7A 02 A1 02 BB 02 CB 02 C5 02 
       7.  01:6248  CC 01 AA 01 44 03 44 03 32 03 20 03 1A 03 20 03 
       7.  01:6258  20 03 20 03 0E 02 0E 02 0E 02 0E 02 A4 01 1A 02 
       7.  01:6268  FF 0F FF 0F FF 0F FF 0F FF 0F FF 0F FF 0F FF 0F 
       7.  01:6278  FF 0F FF 0F FF 0F FF 0F FF 0F FF 0F FF 0F FF 0F 
       7.  01:6288  B6 04 B6 04 71 02 6C 02 67 02 67 02 63 02 63 02 
       7.  01:6298  5E 02 5E 02 67 02 7A 02 A6 02 B6 02 75 02 67 02 
       7.  01:62A8  67 02 67 02 6C 02 67 02 63 02 63 02 D5 02 D2 01 
       7.  01:62B8  D2 01 B4 01 5F 04 DD 01 EF 01 FB 01 0A 02 1E 02 
       7.  01:62C8  4C 02 A1 02 BB 02 CB 02 E0 02 F7 02 FC 02 67 01 
       7.  01:62D8  E1 01 EC 01 FE 01 16 02 22 02 1E 02 B0 02 A1 01 
       7.  01:62E8  A4 01 A4 01 D6 01 D2 01 D2 01 A1 01 A1 01 BB 02 
       7.  01:62F8  FF 0F FF 0F FF 0F FF 0F FF 0F FF 0F FF 0F FF 0F 
       7.  01:6308  FF 0F FF 0F FF 0F FF 0F FF 0F FF 0F FF 0F FF 0F 
       7.  01:6318  A1 03 DA 01 EC 01 EF 01 44 02 51 02 51 02 51 02 
       7.  01:6328  4C 02 3F 02 37 02 2E 02 26 02 26 02 6A 01 6A 01 
       7.  01:6338  2C 01 2C 01 6C 01 6C 01 6F 01 2E 02 37 02 5A 02 
       7.  01:6348  6C 02 75 02 7A 02 7A 02 AB 02 B6 02 AB 02 A6 02 
       7.  01:6358  1A 02 1E 02 26 02 2A 02 32 02 5A 02 63 02 88 02 
       7.  01:6368  CB 02 68 04 A4 04 BB 02 C8 01 D6 01 DA 01 8A 04 
       7.  01:6378  48 02 51 02 55 02 5A 02 5E 02 67 02 7A 02 A6 02 
       7.  01:6388  BB 02 CB 02 C5 02 CF 01 AE 01 44 03 44 03 32 03 
       7.  01:6398  20 03 1A 03 20 03 20 03 20 03 
       8.  01:63A2  FF FF                   dw -1 ; frame terminator 
       9.  01:63A4                          CODE
      10.  01:63A4                      period3:
      11.  01:63A4                          dw 0x0FFF,0x0FFF,0x0FFF,0x0FFF,0x0FFF,0x0FFF,0x0FFF,0x01AA,0x01AE,0x01AE,0x01C1,0x0202,0x01C8,0x01C1,0x0244,0x0248,0x0248,0x0248,0x0248,0x0244,0x023B,0x022E,0x022A,0x022A,0x01D6,0x0152,0x0152,0x0152,0x01AE,0x01CF,0x023F,0x025E,0x0267,0x025A,0x0244,0x023B,0x0237,0x0237,0x0232,0x022E,0x022E,0x0237,0x0244,0x0284,0x028D,0x02A6,0x0302,0x02F1,0x02F7,0x02FC,0x0302,0x0302,0x0302,0x02F7,0x02E6,0x02D5,0x03B6,0x03F0,0x03FF,0x01CC,0x01CC,0x01CC,0x0FFF,0x0FFF,0x0FFF,0x0FFF,0x0FFF,0x0FFF,0x0436,0x01B1,0x01B1,0x01C1,0x01DD,0x01F3,0x020A,0x0212,0x0206,0x0206,0x020A,0x020E,0x0216,0x0226,0x0237,0x026C,0x027F,0x0292,0x02AB,0x02CB,0x02DB,0x02E6,0x02EB,0x02F1,0x02F7,0x02F7,0x02F1,0x02F1,0x02F1,0x02F1,0x02F1,0x03D2,0x03E1,0x03E9,0x043E,0x0FFF,0x0FFF,0x0FFF,0x0FFF,0x0FFF,0x0FFF,0x0FFF,0x0FFF,0x0FFF,0x0FFF,0x0FFF,0x01CC,0x01CC,0x01CC,0x01CC,0x01CC,0x01CC,0x0FFF,0x0FFF,0x0FFF,0x0FFF,0x0FFF,0x0FFF,0x0FFF,0x0FFF,0x0FFF,0x0FFF,0x0FFF,0x0FFF,0x0FFF,0x0FFF,0x0FFF,0x0FFF,0x0FFF,0x0FFF,0x0FFF,0x0FFF,0x0FFF,0x0FFF,0x0FFF,0x0FFF,0x0FFF,0x0FFF,0x0FFF,0x0FFF,0x0FFF,0x0FFF,0x0FFF,0x0FFF,0x0FFF,0x0FFF,0x0FFF,0x017D,0x017D,0x017D
      11.  01:63A4  FF 0F FF 0F FF 0F FF 0F FF 0F FF 0F FF 0F AA 01 
      11.  01:63B4  AE 01 AE 01 C1 01 02 02 C8 01 C1 01 44 02 48 02 
      11.  01:63C4  48 02 48 02 48 02 44 02 3B 02 2E 02 2A 02 2A 02 
      11.  01:63D4  D6 01 52 01 52 01 52 01 AE 01 CF 01 3F 02 5E 02 
      11.  01:63E4  67 02 5A 02 44 02 3B 02 37 02 37 02 32 02 2E 02 
      11.  01:63F4  2E 02 37 02 44 02 84 02 8D 02 A6 02 02 03 F1 02 
      11.  01:6404  F7 02 FC 02 02 03 02 03 02 03 F7 02 E6 02 D5 02 
      11.  01:6414  B6 03 F0 03 FF 03 CC 01 CC 01 CC 01 FF 0F FF 0F 
      11.  01:6424  FF 0F FF 0F FF 0F FF 0F 36 04 B1 01 B1 01 C1 01 
      11.  01:6434  DD 01 F3 01 0A 02 12 02 06 02 06 02 0A 02 0E 02 
      11.  01:6444  16 02 26 02 37 02 6C 02 7F 02 92 02 AB 02 CB 02 
      11.  01:6454  DB 02 E6 02 EB 02 F1 02 F7 02 F7 02 F1 02 F1 02 
      11.  01:6464  F1 02 F1 02 F1 02 D2 03 E1 03 E9 03 3E 04 FF 0F 
      11.  01:6474  FF 0F FF 0F FF 0F FF 0F FF 0F FF 0F FF 0F FF 0F 
      11.  01:6484  FF 0F FF 0F CC 01 CC 01 CC 01 CC 01 CC 01 CC 01 
      11.  01:6494  FF 0F FF 0F FF 0F FF 0F FF 0F FF 0F FF 0F FF 0F 
      11.  01:64A4  FF 0F FF 0F FF 0F FF 0F FF 0F FF 0F FF 0F FF 0F 
      11.  01:64B4  FF 0F FF 0F FF 0F FF 0F FF 0F FF 0F FF 0F FF 0F 
      11.  01:64C4  FF 0F FF 0F FF 0F FF 0F FF 0F FF 0F FF 0F FF 0F 
      11.  01:64D4  FF 0F FF 0F FF 0F 7D 01 7D 01 7D 01 
      12.  01:64E0  FF FF                   dw -1 ; frame terminator 
      13.  01:64E2                          CODE
      14.  01:6000                      period4:
      15.  01:6000                          dw 0x0206,0x01FE,0x01FB,0x01FE,0x020E,0x022A,0x0248,0x0267,0x0271,0x0297,0x02A1,0x02A6,0x02B0,0x02BB,0x02D5,0x02DB,0x02E0,0x02E0,0x02F1,0x0308,0x0314,0x0326,0x032C,0x0332,0x0332,0x032C,0x0338,0x0357,0x03BD,0x03DA,0x03F8,0x041E,0x01C8,0x01C8,0x0FFF,0x0FFF,0x0FFF,0x0FFF,0x0FFF,0x0FFF,0x0FFF,0x0FFF,0x0FFF,0x0FFF,0x0FFF,0x0FFF,0x0FFF,0x0FFF,0x0FFF,0x0FFF,0x0FFF,0x0FFF,0x0FFF,0x0FFF,0x0FFF,0x0FFF,0x0FFF,0x0FFF,0x0FFF,0x0FFF,0x0FFF,0x0FFF,0x0FFF,0x0FFF,0x0FFF,0x0FFF,0x0FFF,0x0FFF,0x0FFF,0x0FFF,0x0FFF,0x0FFF,0x0FFF,0x0FFF,0x0FFF,0x0FFF,0x0FFF,0x0FFF,0x0FFF,0x0FFF,0x0FFF,0x0FFF,0x0FFF,0x0FFF,0x0FFF,0x0FFF,0x0FFF,0x0468,0x015F,0x015F,0x0271,0x01C5,0x01C5,0x01C8,0x021E,0x0226,0x022A,0x022E,0x0232,0x0237,0x023B,0x0244,0x0275,0x01C5,0x01D2,0x022A,0x0232,0x023B,0x023F,0x0251,0x026C,0x016C,0x01C1,0x037E,0x025E,0x0263,0x0267,0x0271,0x027F,0x0385,0x03D2,0x011D,0x018C,0x018C,0x018C,0x018C,0x01B4,0x027A,0x0275,0x0275,0x0275,0x026C,0x026C,0x0267,0x025E,0x025A,0x0255,0x0251,0x024C,0x0251,0x037E,0x02C5,0x02AB,0x029C,0x0297,0x0297,0x0292,0x04DB,0x04C9,0x0263,0x0263,0x0263,0x0263,0x025E,0x0255,0x024C,0x0244,0x023B,0x023B,0x0237,0x0123,0x015F,0x011A,0x0135,0x0130,0x012A,0x012C,0x01C5,0x01C1,0x025E,0x0275,0x027F,0x0288,0x0297,0x029C,0x029C,0x02A1,0x029C,0x0271,0x026C,0x0271,0x0271,0x0271,0x0275,0x0284,0x0297,0x02AB,0x02B6,0x0288,0x0288,0x028D,0x028D,0x0288,0x0288,0x0292,0x02AB,0x02FC,0x029C,0x029C,0x02A1,0x02A6,0x02AB,0x02AB,0x0385,0x03D2,0x0468,0x045F,0x01FB,0x01FE,0x01CC,0x025A,0x0267,0x0275,0x028D,0x02A1,0x02AB,0x02B6,0x02C0,0x02CB,0x0468,0x044F,0x044F,0x0470,0x01CF,0x01CF,0x02C0,0x02C5,0x02D5,0x02F7,0x0308,0x030E,0x031A,0x0326,0x0338,0x033E
      15.  01:6000  06 02 FE 01 FB 01 FE 01 0E 02 2A 02 48 02 67 02 
      15.  01:6010  71 02 97 02 A1 02 A6 02 B0 02 BB 02 D5 02 DB 02 
      15.  01:6020  E0 02 E0 02 F1 02 08 03 14 03 26 03 2C 03 32 03 
      15.  01:6030  32 03 2C 03 38 03 57 03 BD 03 DA 03 F8 03 1E 04 
      15.  01:6040  C8 01 C8 01 FF 0F FF 0F FF 0F FF 0F FF 0F FF 0F 
      15.  01:6050  FF 0F FF 0F FF 0F FF 0F FF 0F FF 0F FF 0F FF 0F 
      15.  01:6060  FF 0F FF 0F FF 0F FF 0F FF 0F FF 0F FF 0F FF 0F 
      15.  01:6070  FF 0F FF 0F FF 0F FF 0F FF 0F FF 0F FF 0F FF 0F 
      15.  01:6080  FF 0F FF 0F FF 0F FF 0F FF 0F FF 0F FF 0F FF 0F 
      15.  01:6090  FF 0F FF 0F FF 0F FF 0F FF 0F FF 0F FF 0F FF 0F 
      15.  01:60A0  FF 0F FF 0F FF 0F FF 0F FF 0F FF 0F FF 0F 68 04 
      15.  01:60B0  5F 01 5F 01 71 02 C5 01 C5 01 C8 01 1E 02 26 02 
      15.  01:60C0  2A 02 2E 02 32 02 37 02 3B 02 44 02 75 02 C5 01 
      15.  01:60D0  D2 01 2A 02 32 02 3B 02 3F 02 51 02 6C 02 6C 01 
      15.  01:60E0  C1 01 7E 03 5E 02 63 02 67 02 71 02 7F 02 85 03 
      15.  01:60F0  D2 03 1D 01 8C 01 8C 01 8C 01 8C 01 B4 01 7A 02 
      15.  01:6100  75 02 75 02 75 02 6C 02 6C 02 67 02 5E 02 5A 02 
      15.  01:6110  55 02 51 02 4C 02 51 02 7E 03 C5 02 AB 02 9C 02 
      15.  01:6120  97 02 97 02 92 02 DB 04 C9 04 63 02 63 02 63 02 
      15.  01:6130  63 02 5E 02 55 02 4C 02 44 02 3B 02 3B 02 37 02 
      15.  01:6140  23 01 5F 01 1A 01 35 01 30 01 2A 01 2C 01 C5 01 
      15.  01:6150  C1 01 5E 02 75 02 7F 02 88 02 97 02 9C 02 9C 02 
      15.  01:6160  A1 02 9C 02 71 02 6C 02 71 02 71 02 71 02 75 02 
      15.  01:6170  84 02 97 02 AB 02 B6 02 88 02 88 02 8D 02 8D 02 
      15.  01:6180  88 02 88 02 92 02 AB 02 FC 02 9C 02 9C 02 A1 02 
      15.  01:6190  A6 02 AB 02 AB 02 85 03 D2 03 68 04 5F 04 FB 01 
      15.  01:61A0  FE 01 CC 01 5A 02 67 02 75 02 8D 02 A1 02 AB 02 
      15.  01:61B0  B6 02 C0 02 CB 02 68 04 4F 04 4F 04 70 04 CF 01 
      15.  01:61C0  CF 01 C0 02 C5 02 D5 02 F7 02 08 03 0E 03 1A 03 
      15.  01:61D0  26 03 38 03 3E 03 
      16.  01:61D6  FF FF                   dw -1 ; frame terminator 
     479   01:61D8                      
     480   01:61D8  (04)                		page 4
     481   04:6000                      		include all_data_files_waves.asm
       1.  04:6000                          CODE
       2.  04:ADC0                      data1:
       3.  04:ADC0                          db 0x00,0x00,0x00,0x00,0x00,0x00,0x00,0x00,0x00,0x00,0x00,0x00,0x00,0x00,0x00,0x00,0x00,0x00,0x00,0x00,0x00,0x00,0x00,0x00,0x00,0x00,0x00,0x00,0x00,0x00,0x00,0x00
       3.  04:ADC0  00 00 00 00 00 00 00 00 00 00 00 00 00 00 00 00 
       3.  04:ADD0  00 00 00 00 00 00 00 00 00 00 00 00 00 00 00 00 
       4.  04:ADE0                          db 0x00,0x00,0x00,0x00,0x00,0x00,0x00,0x00,0x00,0x00,0x00,0x00,0x00,0x00,0x00,0x00,0x00,0x00,0x00,0x00,0x00,0x00,0x00,0x00,0x00,0x00,0x00,0x00,0x00,0x00,0x00,0x00
       4.  04:ADE0  00 00 00 00 00 00 00 00 00 00 00 00 00 00 00 00 
       4.  04:ADF0  00 00 00 00 00 00 00 00 00 00 00 00 00 00 00 00 
       5.  04:AE00                          db 0x00,0x00,0x00,0x00,0x00,0x00,0x00,0x00,0x00,0x00,0x00,0x00,0x00,0x00,0x00,0x00,0x00,0x00,0x00,0x00,0x00,0x00,0x00,0x00,0x00,0x00,0x00,0x00,0x00,0x00,0x00,0x00
       5.  04:AE00  00 00 00 00 00 00 00 00 00 00 00 00 00 00 00 00 
       5.  04:AE10  00 00 00 00 00 00 00 00 00 00 00 00 00 00 00 00 
       6.  04:AE20                          db 0x00,0x00,0x00,0x00,0x00,0x00,0x00,0x00,0x00,0x00,0x00,0x00,0x00,0x00,0x00,0x00,0x00,0x00,0x00,0x00,0x00,0x00,0x00,0x00,0x00,0x00,0x00,0x00,0x00,0x00,0x00,0x00
       6.  04:AE20  00 00 00 00 00 00 00 00 00 00 00 00 00 00 00 00 
       6.  04:AE30  00 00 00 00 00 00 00 00 00 00 00 00 00 00 00 00 
       7.  04:AE40                          db 0x00,0x00,0x00,0x00,0x00,0x00,0x00,0x00,0x00,0x00,0x00,0x00,0x00,0x00,0x00,0x00,0x00,0x00,0x00,0x00,0x00,0x00,0x00,0x00,0x00,0x00,0x00,0x00,0x00,0x00,0x00,0x00
       7.  04:AE40  00 00 00 00 00 00 00 00 00 00 00 00 00 00 00 00 
       7.  04:AE50  00 00 00 00 00 00 00 00 00 00 00 00 00 00 00 00 
       8.  04:AE60                          db 0x00,0x00,0x00,0x00,0x00,0x00,0x00,0x00,0x00,0x00,0x00,0x00,0x00,0x00,0x00,0x00,0x00,0x00,0x00,0x00,0x00,0x00,0x00,0x00,0x00,0x00,0x00,0x00,0x00,0x00,0x00,0x00
       8.  04:AE60  00 00 00 00 00 00 00 00 00 00 00 00 00 00 00 00 
       8.  04:AE70  00 00 00 00 00 00 00 00 00 00 00 00 00 00 00 00 
       9.  04:AE80                          db 0x00,0x00,0x00,0x00,0x00,0x00,0x00,0x00,0x00,0x00,0x00,0x00,0x00,0x00,0x00,0x00,0x00,0x00,0x00,0x00,0x00,0x00,0x00,0x00,0x00,0x00,0x00,0x00,0x00,0x00,0x00,0x00
       9.  04:AE80  00 00 00 00 00 00 00 00 00 00 00 00 00 00 00 00 
       9.  04:AE90  00 00 00 00 00 00 00 00 00 00 00 00 00 00 00 00 
      10.  04:AEA0                          db 0x00,0x00,0x00,0x00,0x00,0x00,0x00,0x00,0x00,0x00,0x00,0x00,0x00,0x00,0x00,0x00,0x00,0x00,0x00,0x00,0x00,0x00,0x00,0x00,0x00,0x00,0x00,0x00,0x00,0x00,0x00,0x00
      10.  04:AEA0  00 00 00 00 00 00 00 00 00 00 00 00 00 00 00 00 
      10.  04:AEB0  00 00 00 00 00 00 00 00 00 00 00 00 00 00 00 00 
      11.  04:AEC0                          db 0x00,0x00,0x00,0x00,0x00,0x00,0x00,0x00,0x00,0x00,0x00,0x00,0x00,0x00,0x00,0x00,0x00,0x00,0x00,0x00,0x00,0x00,0x00,0x00,0x00,0x00,0x00,0x00,0x00,0x00,0x00,0x00
      11.  04:AEC0  00 00 00 00 00 00 00 00 00 00 00 00 00 00 00 00 
      11.  04:AED0  00 00 00 00 00 00 00 00 00 00 00 00 00 00 00 00 
      12.  04:AEE0                          db 0xFD,0xFF,0xFE,0xFD,0xFB,0xFA,0xFA,0xFB,0xFD,0xFF,0xFF,0xFE,0xFE,0xFF,0xFF,0xFF,0x00,0x02,0x03,0x04,0x04,0x05,0x0B,0x11,0x14,0x10,0x09,0x02,0x02,0xFF,0xFE,0xFE
      12.  04:AEE0  FD FF FE FD FB FA FA FB FD FF FF FE FE FF FF FF 
      12.  04:AEF0  00 02 03 04 04 05 0B 11 14 10 09 02 02 FF FE FE 
      13.  04:AF00                          db 0xEF,0xEC,0xE7,0xE4,0xE7,0xEE,0xF5,0xF9,0xFC,0x00,0x06,0x0C,0x10,0x05,0x05,0x06,0x08,0x09,0x09,0x09,0x09,0x09,0x0B,0x12,0x1B,0x1C,0x0E,0xFC,0xF6,0xF8,0xF7,0xF2
      13.  04:AF00  EF EC E7 E4 E7 EE F5 F9 FC 00 06 0C 10 05 05 06 
      13.  04:AF10  08 09 09 09 09 09 0B 12 1B 1C 0E FC F6 F8 F7 F2 
      14.  04:AF20                          db 0xE4,0xF3,0xF5,0xEA,0xE2,0xE8,0xF7,0x05,0x0C,0x0F,0x13,0x15,0x18,0x1A,0x1C,0x19,0x13,0x0B,0x03,0xFF,0x01,0x04,0x03,0x06,0x1D,0x30,0x1E,0xF0,0xD1,0xCD,0xD1,0xD7
      14.  04:AF20  E4 F3 F5 EA E2 E8 F7 05 0C 0F 13 15 18 1A 1C 19 
      14.  04:AF30  13 0B 03 FF 01 04 03 06 1D 30 1E F0 D1 CD D1 D7 
      15.  04:AF40                          db 0xD5,0xEA,0xF7,0xF4,0xEC,0xF0,0xFB,0x04,0x09,0x10,0x1B,0x22,0x25,0x26,0x25,0x21,0x17,0x0D,0x03,0xFE,0xFC,0xFD,0xFC,0x04,0x1B,0x2F,0x21,0xF5,0xD1,0xC5,0xC4,0xC8
      15.  04:AF40  D5 EA F7 F4 EC F0 FB 04 09 10 1B 22 25 26 25 21 
      15.  04:AF50  17 0D 03 FE FC FD FC 04 1B 2F 21 F5 D1 C5 C4 C8 
      16.  04:AF60                          db 0xC9,0xDF,0xEE,0xF6,0xFD,0x03,0x07,0x07,0x09,0x11,0x1C,0x25,0x2A,0x2B,0x29,0x21,0x16,0x0A,0x01,0xFC,0xFA,0xF9,0xFE,0x0F,0x22,0x23,0x0C,0xEE,0xD8,0xC7,0xBC,0xBA
      16.  04:AF60  C9 DF EE F6 FD 03 07 07 09 11 1C 25 2A 2B 29 21 
      16.  04:AF70  16 0A 01 FC FA F9 FE 0F 22 23 0C EE D8 C7 BC BA 
      17.  04:AF80                          db 0xC5,0xDA,0xEB,0xF7,0x00,0x07,0x0B,0x0B,0x0D,0x13,0x1C,0x24,0x2A,0x2C,0x2A,0x24,0x19,0x0C,0x01,0xFA,0xF6,0xF5,0xFC,0x0C,0x1D,0x1E,0x0C,0xF4,0xDE,0xCB,0xBC,0xB9
      17.  04:AF80  C5 DA EB F7 00 07 0B 0B 0D 13 1C 24 2A 2C 2A 24 
      17.  04:AF90  19 0C 01 FA F6 F5 FC 0C 1D 1E 0C F4 DE CB BC B9 
      18.  04:AFA0                          db 0xC7,0xDA,0xEB,0xF5,0xFB,0x01,0x05,0x07,0x09,0x10,0x1A,0x21,0x26,0x28,0x27,0x21,0x17,0x0C,0x03,0xFC,0xFA,0xFA,0xF8,0x06,0x1A,0x22,0x14,0xFA,0xE2,0xD0,0xC2,0xBD
      18.  04:AFA0  C7 DA EB F5 FB 01 05 07 09 10 1A 21 26 28 27 21 
      18.  04:AFB0  17 0C 03 FC FA FA F8 06 1A 22 14 FA E2 D0 C2 BD 
      19.  04:AFC0                          db 0xCB,0xE1,0xF3,0xF4,0xEC,0xE9,0xF1,0xFC,0x06,0x0F,0x16,0x1C,0x1F,0x24,0x25,0x23,0x1D,0x14,0x0B,0x02,0xFE,0xFD,0xFF,0xFF,0x0C,0x27,0x2F,0x10,0xE4,0xCA,0xC4,0xC2
      19.  04:AFC0  CB E1 F3 F4 EC E9 F1 FC 06 0F 16 1C 1F 24 25 23 
      19.  04:AFD0  1D 14 0B 02 FE FD FF FF 0C 27 2F 10 E4 CA C4 C2 
      20.  04:AFE0                          db 0xCB,0xE2,0xF4,0xF1,0xE6,0xDD,0xE2,0xF3,0x07,0x13,0x18,0x19,0x1A,0x1E,0x23,0x26,0x25,0x1E,0x12,0x07,0xFF,0x00,0x03,0x02,0xFF,0x16,0x35,0x26,0xF2,0xCC,0xC1,0xC1
      20.  04:AFE0  CB E2 F4 F1 E6 DD E2 F3 07 13 18 19 1A 1E 23 26 
      20.  04:AFF0  25 1E 12 07 FF 00 03 02 FF 16 35 26 F2 CC C1 C1 
      21.  04:B000                          db 0xC0,0xD9,0xED,0xED,0xE4,0xDE,0xDE,0xEE,0x07,0x18,0x1C,0x1B,0x1C,0x1E,0x24,0x2A,0x2C,0x25,0x19,0x0B,0x00,0xFE,0x00,0x02,0xFC,0x0A,0x31,0x2B,0xFD,0xD7,0xC5,0xBA
      21.  04:B000  C0 D9 ED ED E4 DE DE EE 07 18 1C 1B 1C 1E 24 2A 
      21.  04:B010  2C 25 19 0B 00 FE 00 02 FC 0A 31 2B FD D7 C5 BA 
      22.  04:B020                          db 0xC3,0xD3,0xE2,0xE8,0xE6,0xE0,0xE2,0xF1,0x06,0x15,0x1E,0x1F,0x1E,0x20,0x25,0x29,0x2B,0x26,0x1B,0x0B,0x01,0xFF,0xFF,0xFF,0xFE,0x16,0x2D,0x1C,0xFA,0xDC,0xC2,0xB8
      22.  04:B020  C3 D3 E2 E8 E6 E0 E2 F1 06 15 1E 1F 1E 20 25 29 
      22.  04:B030  2B 26 1B 0B 01 FF FF FF FE 16 2D 1C FA DC C2 B8 
      23.  04:B040                          db 0xDC,0xED,0xF1,0xE8,0xDA,0xD7,0xE4,0xFE,0x10,0x1C,0x1B,0x15,0x13,0x19,0x23,0x2A,0x2B,0x21,0x14,0x08,0xFF,0x03,0x06,0x05,0x00,0x1B,0x31,0x19,0xE9,0xCA,0xB8,0xC2
      23.  04:B040  DC ED F1 E8 DA D7 E4 FE 10 1C 1B 15 13 19 23 2A 
      23.  04:B050  2B 21 14 08 FF 03 06 05 00 1B 31 19 E9 CA B8 C2 
      24.  04:B060                          db 0xE7,0xF3,0xF2,0xE3,0xD5,0xD5,0xE5,0xFF,0x14,0x19,0x0F,0x07,0x0A,0x17,0x26,0x2C,0x28,0x1C,0x0F,0x06,0x02,0x08,0x0D,0x0A,0xFD,0x07,0x31,0x2D,0xED,0xBB,0xBC,0xD2
      24.  04:B060  E7 F3 F2 E3 D5 D5 E5 FF 14 19 0F 07 0A 17 26 2C 
      24.  04:B070  28 1C 0F 06 02 08 0D 0A FD 07 31 2D ED BB BC D2 
      25.  04:B080                          db 0xEF,0xF5,0xF7,0xF0,0xDB,0xCF,0xE0,0xFE,0x11,0x15,0x0F,0x04,0x00,0x0C,0x20,0x2A,0x26,0x1A,0x0E,0x06,0x05,0x06,0x0D,0x0D,0x05,0xF8,0x16,0x3B,0x19,0xC6,0xAB,0xCF
      25.  04:B080  EF F5 F7 F0 DB CF E0 FE 11 15 0F 04 00 0C 20 2A 
      25.  04:B090  26 1A 0E 06 05 06 0D 0D 05 F8 16 3B 19 C6 AB CF 
      26.  04:B0A0                          db 0xFC,0xF8,0xF2,0xF1,0xDD,0xCB,0xDC,0x00,0x13,0x10,0x09,0xFF,0xFC,0x09,0x20,0x2B,0x24,0x17,0x0E,0x07,0x05,0x09,0x10,0x0D,0x05,0xF9,0x18,0x3F,0x1B,0xC4,0xA8,0xD7
      26.  04:B0A0  FC F8 F2 F1 DD CB DC 00 13 10 09 FF FC 09 20 2B 
      26.  04:B0B0  24 17 0E 07 05 09 10 0D 05 F9 18 3F 1B C4 A8 D7 
      27.  04:B0C0                          db 0xFB,0xFB,0xED,0xF0,0xE7,0xCC,0xD1,0xF8,0x11,0x0E,0x06,0x02,0xFE,0x03,0x17,0x29,0x28,0x1A,0x10,0x0C,0x08,0x06,0x0E,0x13,0x0D,0xFA,0x08,0x3A,0x32,0xDD,0xA5,0xC9
      27.  04:B0C0  FB FB ED F0 E7 CC D1 F8 11 0E 06 02 FE 03 17 29 
      27.  04:B0D0  28 1A 10 0C 08 06 0E 13 0D FA 08 3A 32 DD A5 C9 
      28.  04:B0E0                          db 0xFB,0xF9,0xEB,0xEE,0xE4,0xC9,0xCE,0xF6,0x12,0x10,0x06,0x01,0xFE,0x03,0x15,0x28,0x28,0x1C,0x10,0x0C,0x08,0x08,0x12,0x15,0x0B,0xFA,0x0E,0x3F,0x2D,0xD6,0xA6,0xCE
      28.  04:B0E0  FB F9 EB EE E4 C9 CE F6 12 10 06 01 FE 03 15 28 
      28.  04:B0F0  28 1C 10 0C 08 08 12 15 0B FA 0E 3F 2D D6 A6 CE 
      29.  04:B100                          db 0x02,0xEB,0xE3,0xEF,0xD8,0xC0,0xD9,0x08,0x16,0x07,0x00,0x03,0x02,0x09,0x1E,0x2E,0x28,0x17,0x0D,0x0B,0x09,0x09,0x15,0x14,0x08,0xF7,0x24,0x4A,0x16,0xB8,0xAC,0xE9
      29.  04:B100  02 EB E3 EF D8 C0 D9 08 16 07 00 03 02 09 1E 2E 
      29.  04:B110  28 17 0D 0B 09 09 15 14 08 F7 24 4A 16 B8 AC E9 
      30.  04:B120                          db 0xF2,0xE3,0xE3,0xEE,0xCF,0xB0,0xCC,0xFF,0x0F,0x06,0x06,0x09,0x04,0x09,0x22,0x35,0x30,0x21,0x17,0x10,0x09,0x0C,0x19,0x15,0x07,0xF9,0x2C,0x4B,0x08,0xB3,0xB6,0xEE
      30.  04:B120  F2 E3 E3 EE CF B0 CC FF 0F 06 06 09 04 09 22 35 
      30.  04:B130  30 21 17 10 09 0C 19 15 07 F9 2C 4B 08 B3 B6 EE 
      31.  04:B140                          db 0xEA,0xDB,0xE7,0xEB,0xC2,0xAB,0xCF,0xFC,0x08,0x05,0x0C,0x0B,0x03,0x0C,0x28,0x39,0x33,0x26,0x1D,0x14,0x0B,0x0F,0x1B,0x15,0x06,0xFA,0x32,0x47,0xFD,0xB6,0xBB,0xEC
      31.  04:B140  EA DB E7 EB C2 AB CF FC 08 05 0C 0B 03 0C 28 39 
      31.  04:B150  33 26 1D 14 0B 0F 1B 15 06 FA 32 47 FD B6 BB EC 
      32.  04:B160                          db 0xE0,0xD3,0xE2,0xE6,0xC1,0xA4,0xC6,0xF2,0x02,0x07,0x10,0x0D,0x04,0x0E,0x2A,0x3E,0x3D,0x33,0x28,0x1B,0x10,0x12,0x1F,0x19,0x0B,0xFB,0x29,0x49,0x04,0xBC,0xBA,0xE6
      32.  04:B160  E0 D3 E2 E6 C1 A4 C6 F2 02 07 10 0D 04 0E 2A 3E 
      32.  04:B170  3D 33 28 1B 10 12 1F 19 0B FB 29 49 04 BC BA E6 
      33.  04:B180                          db 0xD2,0xBA,0xD0,0xDC,0xC1,0xA2,0xB7,0xE2,0xF7,0x02,0x10,0x15,0x0C,0x0C,0x24,0x3D,0x45,0x41,0x3A,0x2D,0x1C,0x15,0x21,0x1F,0x13,0x03,0x24,0x49,0x06,0xBF,0xB9,0xDC
      33.  04:B180  D2 BA D0 DC C1 A2 B7 E2 F7 02 10 15 0C 0C 24 3D 
      33.  04:B190  45 41 3A 2D 1C 15 21 1F 13 03 24 49 06 BF B9 DC 
      34.  04:B1A0                          db 0xD0,0xB6,0xC4,0xDE,0xCA,0xAD,0xB0,0xD1,0xE6,0xF5,0x0E,0x19,0x0F,0x0A,0x19,0x2F,0x3C,0x42,0x40,0x37,0x25,0x17,0x1B,0x22,0x1A,0x0E,0x11,0x43,0x2F,0xDA,0xC1,0xCF
      34.  04:B1A0  D0 B6 C4 DE CA AD B0 D1 E6 F5 0E 19 0F 0A 19 2F 
      34.  04:B1B0  3C 42 40 37 25 17 1B 22 1A 0E 11 43 2F DA C1 CF 
      35.  04:B1C0                          db 0xB8,0xBC,0xDC,0xE6,0xCD,0xCB,0xD4,0xD2,0xDF,0x00,0x16,0x13,0x0D,0x12,0x1D,0x27,0x33,0x3B,0x37,0x2A,0x1C,0x12,0x13,0x14,0x0E,0x0B,0x0F,0x40,0x2B,0xDA,0xD7,0xD3
      35.  04:B1C0  B8 BC DC E6 CD CB D4 D2 DF 00 16 13 0D 12 1D 27 
      35.  04:B1D0  33 3B 37 2A 1C 12 13 14 0E 0B 0F 40 2B DA D7 D3 
      36.  04:B1E0                          db 0xBA,0xBF,0xD2,0xD4,0xCC,0xCF,0xD1,0xCE,0xDE,0xFE,0x11,0x13,0x15,0x18,0x1B,0x23,0x31,0x38,0x33,0x2B,0x1F,0x11,0x0C,0x10,0x0A,0x04,0x04,0x28,0x30,0xEF,0xE7,0xDF
      36.  04:B1E0  BA BF D2 D4 CC CF D1 CE DE FE 11 13 15 18 1B 23 
      36.  04:B1F0  31 38 33 2B 1F 11 0C 10 0A 04 04 28 30 EF E7 DF 
      37.  04:B200                          db 0xC4,0xC1,0xC0,0xBF,0xC4,0xC7,0xCB,0xD8,0xEC,0x00,0x0E,0x17,0x1F,0x26,0x2C,0x34,0x3A,0x3B,0x38,0x31,0x25,0x1B,0x16,0x0D,0x07,0x02,0x14,0x22,0x05,0xF7,0xEE,0xD2
      37.  04:B200  C4 C1 C0 BF C4 C7 CB D8 EC 00 0E 17 1F 26 2C 34 
      37.  04:B210  3A 3B 38 31 25 1B 16 0D 07 02 14 22 05 F7 EE D2 
      38.  04:B220                          db 0xCD,0xBF,0xB9,0xBB,0xC0,0xC9,0xD5,0xE1,0xEE,0xFC,0x08,0x11,0x19,0x1F,0x25,0x2B,0x2F,0x32,0x32,0x2F,0x27,0x1F,0x17,0x0D,0x07,0x02,0x12,0x17,0x07,0x02,0xF2,0xDC
      38.  04:B220  CD BF B9 BB C0 C9 D5 E1 EE FC 08 11 19 1F 25 2B 
      38.  04:B230  2F 32 32 2F 27 1F 17 0D 07 02 12 17 07 02 F2 DC 
      39.  04:B240                          db 0xD8,0xC8,0xBE,0xB9,0xBB,0xC1,0xCC,0xDA,0xE9,0xF8,0x05,0x11,0x1A,0x23,0x2A,0x2F,0x33,0x35,0x35,0x2F,0x28,0x21,0x18,0x0E,0x06,0x04,0x0B,0x09,0x07,0x03,0xF7,0xEA
      39.  04:B240  D8 C8 BE B9 BB C1 CC DA E9 F8 05 11 1A 23 2A 2F 
      39.  04:B250  33 35 35 2F 28 21 18 0E 06 04 0B 09 07 03 F7 EA 
      40.  04:B260                          db 0xC8,0xBC,0xB2,0xAC,0xAC,0xB1,0xBC,0xCB,0xDD,0xF1,0x07,0x18,0x28,0x34,0x3E,0x45,0x48,0x49,0x45,0x3F,0x37,0x2B,0x1F,0x13,0x0D,0x05,0xFF,0xFB,0xF6,0xEE,0xE2,0xD5
      40.  04:B260  C8 BC B2 AC AC B1 BC CB DD F1 07 18 28 34 3E 45 
      40.  04:B270  48 49 45 3F 37 2B 1F 13 0D 05 FF FB F6 EE E2 D5 
      41.  04:B280                          db 0xC5,0xBA,0xB1,0xAD,0xAD,0xB2,0xBD,0xCC,0xDE,0xF2,0x06,0x19,0x2B,0x39,0x44,0x4C,0x4F,0x4F,0x4B,0x44,0x3A,0x2E,0x22,0x19,0x0D,0x04,0xFE,0xF7,0xEF,0xE6,0xDB,0xD0
      41.  04:B280  C5 BA B1 AD AD B2 BD CC DE F2 06 19 2B 39 44 4C 
      41.  04:B290  4F 4F 4B 44 3A 2E 22 19 0D 04 FE F7 EF E6 DB D0 
      42.  04:B2A0                          db 0xCD,0xC3,0xBA,0xB6,0xB5,0xB9,0xC2,0xCF,0xDE,0xF0,0x02,0x13,0x24,0x31,0x3C,0x43,0x47,0x47,0x44,0x3E,0x36,0x2B,0x22,0x19,0x0E,0x05,0xFF,0xF9,0xF2,0xEA,0xE1,0xD7
      42.  04:B2A0  CD C3 BA B6 B5 B9 C2 CF DE F0 02 13 24 31 3C 43 
      42.  04:B2B0  47 47 44 3E 36 2B 22 19 0E 05 FF F9 F2 EA E1 D7 
      43.  04:B2C0                          db 0xD4,0xCB,0xC4,0xC1,0xC1,0xC6,0xCE,0xDA,0xE8,0xF8,0x07,0x16,0x21,0x2D,0x36,0x3D,0x40,0x40,0x3C,0x37,0x2E,0x24,0x19,0x11,0x08,0x01,0xFC,0xF7,0xF3,0xED,0xE5,0xDD
      43.  04:B2C0  D4 CB C4 C1 C1 C6 CE DA E8 F8 07 16 21 2D 36 3D 
      43.  04:B2D0  40 40 3C 37 2E 24 19 11 08 01 FC F7 F3 ED E5 DD 
      44.  04:B2E0                          db 0xD9,0xD3,0xCB,0xC5,0xC3,0xC4,0xCA,0xD4,0xE0,0xEF,0xFE,0x0D,0x1C,0x28,0x32,0x3A,0x3D,0x3E,0x3B,0x35,0x2D,0x23,0x18,0x0F,0x07,0x00,0xFB,0xF7,0xF3,0xEE,0xE8,0xE0
      44.  04:B2E0  D9 D3 CB C5 C3 C4 CA D4 E0 EF FE 0D 1C 28 32 3A 
      44.  04:B2F0  3D 3E 3B 35 2D 23 18 0F 07 00 FB F7 F3 EE E8 E0 
      45.  04:B300                          db 0xDA,0xD5,0xD1,0xCE,0xCD,0xD0,0xD5,0xDD,0xE8,0xF5,0x04,0x12,0x20,0x2D,0x36,0x3D,0x3F,0x3E,0x39,0x31,0x2E,0x23,0x18,0x0D,0x03,0xFB,0xF5,0xF0,0xEC,0xE8,0xE4,0xDF
      45.  04:B300  DA D5 D1 CE CD D0 D5 DD E8 F5 04 12 20 2D 36 3D 
      45.  04:B310  3F 3E 39 31 2E 23 18 0D 03 FB F5 F0 EC E8 E4 DF 
      46.  04:B320                          db 0xDB,0xD8,0xD5,0xD4,0xD5,0xD7,0xD7,0xDC,0xE4,0xEE,0xFA,0x07,0x15,0x21,0x2C,0x34,0x39,0x3A,0x38,0x33,0x2B,0x22,0x18,0x0E,0x05,0xFD,0xF6,0xF0,0xEC,0xE7,0xE3,0xDF
      46.  04:B320  DB D8 D5 D4 D5 D7 D7 DC E4 EE FA 07 15 21 2C 34 
      46.  04:B330  39 3A 38 33 2B 22 18 0E 05 FD F6 F0 EC E7 E3 DF 
      47.  04:B340                          db 0xDF,0xDB,0xD8,0xD7,0xD8,0xDB,0xE0,0xE6,0xED,0xF6,0xFF,0x09,0x11,0x19,0x20,0x24,0x27,0x28,0x26,0x24,0x20,0x1B,0x16,0x19,0x12,0x0B,0x04,0xFD,0xF6,0xEF,0xE9,0xE3
      47.  04:B340  DF DB D8 D7 D8 DB E0 E6 ED F6 FF 09 11 19 20 24 
      47.  04:B350  27 28 26 24 20 1B 16 19 12 0B 04 FD F6 EF E9 E3 
      48.  04:B360                          db 0xE6,0xE5,0xE5,0xE6,0xE9,0xED,0xF2,0xF7,0xEB,0xF2,0xF9,0x01,0x08,0x0F,0x15,0x1A,0x1D,0x1F,0x1F,0x1E,0x1C,0x18,0x14,0x0F,0x0A,0x05,0xFF,0xF9,0xF4,0xEF,0xEB,0xE8
      48.  04:B360  E6 E5 E5 E6 E9 ED F2 F7 EB F2 F9 01 08 0F 15 1A 
      48.  04:B370  1D 1F 1F 1E 1C 18 14 0F 0A 05 FF F9 F4 EF EB E8 
      49.  04:B380                          db 0xF9,0xF7,0xF6,0xF5,0xF5,0xF5,0xF6,0xF7,0xF9,0xFC,0xFE,0x01,0x03,0x05,0x07,0x08,0x09,0x09,0x09,0x08,0x07,0x06,0x04,0x03,0x01,0xFF,0xFD,0xFC,0x04,0x01,0xFF,0xFC
      49.  04:B380  F9 F7 F6 F5 F5 F5 F6 F7 F9 FC FE 01 03 05 07 08 
      49.  04:B390  09 09 09 08 07 06 04 03 01 FF FD FC 04 01 FF FC 
      50.  04:B3A0                          db 0xFF,0xFF,0xFF,0xFF,0xFE,0xFF,0xFF,0xFF,0xFF,0x00,0x00,0x01,0x01,0x01,0x01,0x02,0x03,0x03,0x03,0x03,0x02,0x02,0x01,0x01,0x01,0x00,0x00,0x00,0x00,0x00,0xFF,0xFF
      50.  04:B3A0  FF FF FF FF FE FF FF FF FF 00 00 01 01 01 01 02 
      50.  04:B3B0  03 03 03 03 02 02 01 01 01 00 00 00 00 00 FF FF 
      51.  04:B3C0                          db 0x00,0x00,0x00,0x00,0x00,0x00,0x00,0x00,0x00,0x00,0x00,0x00,0x00,0x00,0x00,0x00,0x00,0x00,0x00,0x00,0x00,0x00,0x00,0x00,0x00,0x00,0x00,0x00,0x00,0x00,0x00,0x00
      51.  04:B3C0  00 00 00 00 00 00 00 00 00 00 00 00 00 00 00 00 
      51.  04:B3D0  00 00 00 00 00 00 00 00 00 00 00 00 00 00 00 00 
      52.  04:B3E0                          db 0x00,0x00,0x00,0x00,0x00,0x00,0x00,0x00,0x00,0x00,0x00,0x00,0x00,0x00,0x00,0x00,0x00,0x00,0x00,0x00,0x00,0x00,0x00,0x00,0x00,0x00,0x00,0x00,0x00,0x00,0x00,0x00
      52.  04:B3E0  00 00 00 00 00 00 00 00 00 00 00 00 00 00 00 00 
      52.  04:B3F0  00 00 00 00 00 00 00 00 00 00 00 00 00 00 00 00 
      53.  04:B400                          db 0x00,0x00,0x00,0x00,0x00,0x00,0x00,0x00,0x00,0x00,0x00,0x00,0x00,0x00,0x00,0x00,0x00,0x00,0x00,0x00,0x00,0x00,0x00,0x00,0x00,0x00,0x00,0x00,0x00,0x00,0x00,0x00
      53.  04:B400  00 00 00 00 00 00 00 00 00 00 00 00 00 00 00 00 
      53.  04:B410  00 00 00 00 00 00 00 00 00 00 00 00 00 00 00 00 
      54.  04:B420                          db 0x00,0x00,0x00,0x00,0x00,0x00,0x00,0x00,0x00,0x00,0x00,0x00,0x00,0x00,0x00,0x00,0x00,0x00,0x00,0x00,0x00,0x00,0x00,0x00,0x00,0x00,0x00,0x00,0x00,0x00,0x00,0x00
      54.  04:B420  00 00 00 00 00 00 00 00 00 00 00 00 00 00 00 00 
      54.  04:B430  00 00 00 00 00 00 00 00 00 00 00 00 00 00 00 00 
      55.  04:B440                          db 0x00,0x00,0x00,0x00,0x00,0x00,0x00,0x00,0x00,0x00,0x00,0x00,0x00,0x00,0x00,0x00,0x00,0x00,0x00,0x00,0x00,0x00,0x00,0x00,0x00,0x00,0x00,0x00,0x00,0x00,0x00,0x00
      55.  04:B440  00 00 00 00 00 00 00 00 00 00 00 00 00 00 00 00 
      55.  04:B450  00 00 00 00 00 00 00 00 00 00 00 00 00 00 00 00 
      56.  04:B460                          db 0x00,0x00,0x00,0x00,0x00,0x00,0x00,0x00,0x00,0x00,0x00,0x00,0x00,0x00,0x00,0x00,0x00,0x00,0x00,0x00,0x00,0x00,0x00,0x00,0x00,0x00,0x00,0x00,0x00,0x00,0x00,0x00
      56.  04:B460  00 00 00 00 00 00 00 00 00 00 00 00 00 00 00 00 
      56.  04:B470  00 00 00 00 00 00 00 00 00 00 00 00 00 00 00 00 
      57.  04:B480                          db 0x00,0x00,0x00,0x00,0x00,0x00,0x00,0x00,0x00,0x00,0x00,0x00,0x00,0x00,0x00,0x00,0x00,0x00,0x00,0x00,0x00,0x00,0x00,0x00,0x00,0x00,0x00,0x00,0x00,0x00,0x00,0x00
      57.  04:B480  00 00 00 00 00 00 00 00 00 00 00 00 00 00 00 00 
      57.  04:B490  00 00 00 00 00 00 00 00 00 00 00 00 00 00 00 00 
      58.  04:B4A0                          db 0x00,0x00,0x00,0x00,0x00,0x00,0x00,0x00,0x00,0x00,0x00,0x00,0x00,0x00,0x00,0x00,0x00,0x00,0x00,0x00,0x00,0x00,0x00,0x00,0x00,0x00,0x00,0x00,0x00,0x00,0x00,0x00
      58.  04:B4A0  00 00 00 00 00 00 00 00 00 00 00 00 00 00 00 00 
      58.  04:B4B0  00 00 00 00 00 00 00 00 00 00 00 00 00 00 00 00 
      59.  04:B4C0                          db 0x00,0x00,0x00,0x00,0x00,0x00,0x00,0x00,0x00,0x00,0x00,0x00,0x00,0x00,0x00,0x00,0x00,0x00,0x00,0x00,0x00,0x00,0x00,0x00,0x00,0x00,0x00,0x00,0x00,0x00,0x00,0x00
      59.  04:B4C0  00 00 00 00 00 00 00 00 00 00 00 00 00 00 00 00 
      59.  04:B4D0  00 00 00 00 00 00 00 00 00 00 00 00 00 00 00 00 
      60.  04:B4E0                          db 0x00,0x00,0x00,0x00,0x00,0x00,0x00,0x00,0x00,0x00,0x00,0x00,0x00,0x00,0x00,0x00,0x00,0x00,0x00,0x00,0x00,0x00,0x00,0x00,0x00,0x00,0x00,0x00,0x00,0x00,0x00,0x00
      60.  04:B4E0  00 00 00 00 00 00 00 00 00 00 00 00 00 00 00 00 
      60.  04:B4F0  00 00 00 00 00 00 00 00 00 00 00 00 00 00 00 00 
      61.  04:B500                          db 0x00,0x00,0x00,0x00,0x00,0x00,0x00,0x00,0x00,0x00,0x00,0x00,0x00,0x00,0x00,0x00,0x00,0x00,0x00,0x00,0x00,0x00,0x00,0x00,0x00,0x00,0x00,0x00,0x00,0x00,0x00,0x00
      61.  04:B500  00 00 00 00 00 00 00 00 00 00 00 00 00 00 00 00 
      61.  04:B510  00 00 00 00 00 00 00 00 00 00 00 00 00 00 00 00 
      62.  04:B520                          db 0x00,0x00,0x00,0x00,0x00,0x00,0x00,0x00,0x00,0x00,0x00,0x00,0x00,0x00,0x00,0x00,0x00,0x00,0x00,0x00,0x00,0x00,0x00,0x00,0x00,0x00,0x00,0x00,0x00,0x00,0x00,0x00
      62.  04:B520  00 00 00 00 00 00 00 00 00 00 00 00 00 00 00 00 
      62.  04:B530  00 00 00 00 00 00 00 00 00 00 00 00 00 00 00 00 
      63.  04:B540                          db 0x00,0x00,0x00,0x00,0x00,0x00,0x00,0x00,0x00,0x00,0x00,0x00,0x00,0x00,0x00,0x00,0x00,0x00,0x00,0x00,0x00,0x00,0x00,0x00,0x00,0x00,0x00,0x00,0x00,0x00,0x00,0x00
      63.  04:B540  00 00 00 00 00 00 00 00 00 00 00 00 00 00 00 00 
      63.  04:B550  00 00 00 00 00 00 00 00 00 00 00 00 00 00 00 00 
      64.  04:B560                          db 0x00,0x00,0x00,0x00,0x00,0x00,0x00,0x00,0x00,0x00,0x00,0x00,0x00,0x00,0x00,0x00,0x00,0x00,0x00,0x00,0x00,0x00,0x00,0x00,0x00,0x00,0x00,0x00,0x00,0x00,0x00,0x00
      64.  04:B560  00 00 00 00 00 00 00 00 00 00 00 00 00 00 00 00 
      64.  04:B570  00 00 00 00 00 00 00 00 00 00 00 00 00 00 00 00 
      65.  04:B580                          db 0x00,0x00,0x00,0x00,0x00,0x00,0x00,0x00,0x00,0x00,0x00,0x00,0x00,0x00,0x00,0x00,0x00,0x00,0x00,0x00,0x00,0x00,0x00,0x00,0x00,0x00,0x00,0x00,0x00,0x00,0x00,0x00
      65.  04:B580  00 00 00 00 00 00 00 00 00 00 00 00 00 00 00 00 
      65.  04:B590  00 00 00 00 00 00 00 00 00 00 00 00 00 00 00 00 
      66.  04:B5A0                          db 0x00,0x00,0x00,0x00,0x00,0x00,0x00,0x00,0x00,0x00,0x00,0x00,0x00,0x00,0x00,0x00,0x00,0x00,0x00,0x00,0x00,0x00,0x00,0x00,0x00,0x00,0x00,0x00,0x00,0x00,0x00,0x00
      66.  04:B5A0  00 00 00 00 00 00 00 00 00 00 00 00 00 00 00 00 
      66.  04:B5B0  00 00 00 00 00 00 00 00 00 00 00 00 00 00 00 00 
      67.  04:B5C0                          db 0x00,0x00,0x00,0x00,0x00,0x00,0x00,0x00,0x00,0x00,0x00,0x00,0x00,0x00,0x00,0x00,0x00,0x00,0x00,0x00,0x00,0x00,0x00,0x00,0x00,0x00,0x00,0x00,0x00,0x00,0x00,0x00
      67.  04:B5C0  00 00 00 00 00 00 00 00 00 00 00 00 00 00 00 00 
      67.  04:B5D0  00 00 00 00 00 00 00 00 00 00 00 00 00 00 00 00 
      68.  04:B5E0                          db 0x00,0x00,0x00,0x00,0x00,0x00,0x00,0x00,0x00,0x00,0x00,0x00,0x00,0x00,0x00,0x00,0x00,0x00,0x00,0x00,0x00,0x00,0x00,0x00,0x00,0x00,0x00,0x00,0x00,0x00,0x00,0x00
      68.  04:B5E0  00 00 00 00 00 00 00 00 00 00 00 00 00 00 00 00 
      68.  04:B5F0  00 00 00 00 00 00 00 00 00 00 00 00 00 00 00 00 
      69.  04:B600                          db 0x00,0x00,0x00,0x00,0x00,0x00,0x00,0x00,0x00,0x00,0x00,0x00,0x00,0x00,0x00,0x00,0x00,0x00,0x00,0x00,0x00,0x00,0x00,0x00,0x00,0x00,0x00,0x00,0x00,0x00,0x00,0x00
      69.  04:B600  00 00 00 00 00 00 00 00 00 00 00 00 00 00 00 00 
      69.  04:B610  00 00 00 00 00 00 00 00 00 00 00 00 00 00 00 00 
      70.  04:B620                          db 0x00,0x00,0x00,0x00,0x00,0x00,0x00,0x00,0x00,0x00,0x00,0x00,0x00,0x00,0x00,0x00,0x00,0x00,0x00,0x00,0x00,0x00,0x00,0x00,0x00,0x00,0x00,0x00,0x00,0x00,0x00,0x00
      70.  04:B620  00 00 00 00 00 00 00 00 00 00 00 00 00 00 00 00 
      70.  04:B630  00 00 00 00 00 00 00 00 00 00 00 00 00 00 00 00 
      71.  04:B640                          db 0xFC,0xFE,0xFF,0x01,0x03,0x05,0x06,0x08,0x0A,0x0C,0x0E,0x0F,0x10,0x11,0x10,0x0E,0x0B,0x08,0x03,0xFE,0xF9,0xF4,0xF1,0xED,0xEB,0xE9,0xE9,0xEA,0xEC,0xEE,0xF9,0xFB
      71.  04:B640  FC FE FF 01 03 05 06 08 0A 0C 0E 0F 10 11 10 0E 
      71.  04:B650  0B 08 03 FE F9 F4 F1 ED EB E9 E9 EA EC EE F9 FB 
      72.  04:B660                          db 0xE4,0xF3,0x01,0x0E,0x1B,0x27,0x2B,0x32,0x38,0x3E,0x43,0x47,0x49,0x49,0x45,0x3D,0x32,0x23,0x0F,0xFA,0xE5,0xD1,0xC0,0xB2,0xA9,0xA4,0xA4,0xA9,0xB1,0xBB,0xC8,0xD5
      72.  04:B660  E4 F3 01 0E 1B 27 2B 32 38 3E 43 47 49 49 45 3D 
      72.  04:B670  32 23 0F FA E5 D1 C0 B2 A9 A4 A4 A9 B1 BB C8 D5 
      73.  04:B680                          db 0xE9,0xF8,0x05,0x11,0x1C,0x27,0x30,0x38,0x3F,0x43,0x49,0x4F,0x51,0x53,0x4D,0x44,0x36,0x24,0x0E,0xF6,0xDE,0xC9,0xB8,0xAD,0xA5,0xA3,0xA5,0xAC,0xB5,0xC1,0xCE,0xDC
      73.  04:B680  E9 F8 05 11 1C 27 30 38 3F 43 49 4F 51 53 4D 44 
      73.  04:B690  36 24 0E F6 DE C9 B8 AD A5 A3 A5 AC B5 C1 CE DC 
      74.  04:B6A0                          db 0xF2,0xFF,0x0D,0x19,0x26,0x30,0x3C,0x44,0x4A,0x50,0x4E,0x55,0x57,0x52,0x57,0x46,0x3A,0x25,0x07,0xEC,0xCE,0xB2,0xA0,0x95,0x91,0x93,0x99,0xA6,0xB3,0xC3,0xD3,0xE2
      74.  04:B6A0  F2 FF 0D 19 26 30 3C 44 4A 50 4E 55 57 52 57 46 
      74.  04:B6B0  3A 25 07 EC CE B2 A0 95 91 93 99 A6 B3 C3 D3 E2 
      75.  04:B6C0                          db 0xFA,0x00,0x0B,0x17,0x22,0x2E,0x39,0x43,0x4D,0x52,0x56,0x53,0x52,0x5A,0x49,0x50,0x40,0x2B,0x1B,0xF9,0xDD,0xBD,0xA1,0x8C,0x82,0x81,0x89,0x98,0xAC,0xC1,0xD7,0xEA
      75.  04:B6C0  FA 00 0B 17 22 2E 39 43 4D 52 56 53 52 5A 49 50 
      75.  04:B6D0  40 2B 1B F9 DD BD A1 8C 82 81 89 98 AC C1 D7 EA 
      76.  04:B6E0                          db 0x0B,0x1C,0x28,0x2E,0x32,0x34,0x35,0x36,0x39,0x3B,0x3C,0x3D,0x41,0x3D,0x46,0x38,0x32,0x30,0x17,0x04,0xEC,0xD0,0xB2,0x9D,0x8D,0x83,0x87,0x94,0xA6,0xC0,0xDC,0xF4
      76.  04:B6E0  0B 1C 28 2E 32 34 35 36 39 3B 3C 3D 41 3D 46 38 
      76.  04:B6F0  32 30 17 04 EC D0 B2 9D 8D 83 87 94 A6 C0 DC F4 
      77.  04:B700                          db 0x03,0x16,0x27,0x32,0x37,0x39,0x3A,0x39,0x37,0x38,0x37,0x35,0x34,0x2F,0x2D,0x32,0x28,0x21,0x1B,0x09,0xF2,0xDB,0xC6,0xAF,0x9B,0x91,0x8B,0x92,0xA1,0xB5,0xCE,0xE9
      77.  04:B700  03 16 27 32 37 39 3A 39 37 38 37 35 34 2F 2D 32 
      77.  04:B710  28 21 1B 09 F2 DB C6 AF 9B 91 8B 92 A1 B5 CE E9 
      78.  04:B720                          db 0xF9,0x0B,0x1B,0x29,0x32,0x37,0x3B,0x3E,0x41,0x44,0x44,0x43,0x40,0x3A,0x3C,0x3B,0x32,0x28,0x1B,0x0B,0xEF,0xD4,0xBD,0xA5,0x93,0x87,0x88,0x91,0x9F,0xB3,0xCA,0xE3
      78.  04:B720  F9 0B 1B 29 32 37 3B 3E 41 44 44 43 40 3A 3C 3B 
      78.  04:B730  32 28 1B 0B EF D4 BD A5 93 87 88 91 9F B3 CA E3 
      79.  04:B740                          db 0x05,0x16,0x24,0x2E,0x35,0x38,0x3A,0x3C,0x3D,0x3F,0x3E,0x3F,0x3C,0x3E,0x41,0x3D,0x33,0x25,0x17,0x01,0xE5,0xCA,0xB1,0x9D,0x8C,0x85,0x88,0x94,0xA6,0xBB,0xD4,0xEE
      79.  04:B740  05 16 24 2E 35 38 3A 3C 3D 3F 3E 3F 3C 3E 41 3D 
      79.  04:B750  33 25 17 01 E5 CA B1 9D 8C 85 88 94 A6 BB D4 EE 
      80.  04:B760                          db 0xFF,0x10,0x1C,0x25,0x2B,0x2F,0x31,0x32,0x34,0x36,0x38,0x39,0x3A,0x3F,0x42,0x40,0x37,0x2B,0x1D,0x09,0xF1,0xD6,0xBE,0xAB,0x9D,0x96,0x96,0x9E,0xAC,0xBE,0xD5,0xEB
      80.  04:B760  FF 10 1C 25 2B 2F 31 32 34 36 38 39 3A 3F 42 40 
      80.  04:B770  37 2B 1D 09 F1 D6 BE AB 9D 96 96 9E AC BE D5 EB 
      81.  04:B780                          db 0xF1,0xFC,0x05,0x0D,0x14,0x19,0x1E,0x24,0x2A,0x30,0x35,0x39,0x40,0x45,0x47,0x43,0x39,0x2D,0x1D,0x09,0xF1,0xD9,0xC4,0xB5,0xAA,0xA5,0xA6,0xAC,0xB7,0xC6,0xD5,0xE4
      81.  04:B780  F1 FC 05 0D 14 19 1E 24 2A 30 35 39 40 45 47 43 
      81.  04:B790  39 2D 1D 09 F1 D9 C4 B5 AA A5 A6 AC B7 C6 D5 E4 
      82.  04:B7A0                          db 0xED,0xF6,0xFF,0x06,0x0E,0x15,0x1C,0x24,0x2B,0x31,0x36,0x3B,0x41,0x45,0x46,0x41,0x37,0x29,0x18,0x05,0xF1,0xDD,0xCC,0xBE,0xB2,0xAF,0xB1,0xB6,0xBF,0xCA,0xD7,0xE3
      82.  04:B7A0  ED F6 FF 06 0E 15 1C 24 2B 31 36 3B 41 45 46 41 
      82.  04:B7B0  37 29 18 05 F1 DD CC BE B2 AF B1 B6 BF CA D7 E3 
      83.  04:B7C0                          db 0xF2,0xF6,0xF9,0xFD,0x02,0x08,0x0F,0x17,0x1F,0x26,0x2C,0x30,0x36,0x3C,0x41,0x40,0x38,0x29,0x16,0x03,0xF1,0xDF,0xD0,0xC5,0xBF,0xC0,0xC6,0xCE,0xD7,0xDF,0xE6,0xED
      83.  04:B7C0  F2 F6 F9 FD 02 08 0F 17 1F 26 2C 30 36 3C 41 40 
      83.  04:B7D0  38 29 16 03 F1 DF D0 C5 BF C0 C6 CE D7 DF E6 ED 
      84.  04:B7E0                          db 0xF1,0xF1,0xF3,0xF8,0xFE,0x08,0x13,0x1D,0x25,0x2B,0x31,0x33,0x33,0x2E,0x30,0x3A,0x41,0x3D,0x28,0x17,0xFE,0xE7,0xD1,0xBC,0xB0,0xB1,0xBC,0xCA,0xD6,0xE1,0xE9,0xEE
      84.  04:B7E0  F1 F1 F3 F8 FE 08 13 1D 25 2B 31 33 33 2E 30 3A 
      84.  04:B7F0  41 3D 28 17 FE E7 D1 BC B0 B1 BC CA D6 E1 E9 EE 
      85.  04:B800                          db 0xE9,0xEA,0xEF,0xF6,0x02,0x10,0x1D,0x28,0x2F,0x32,0x32,0x32,0x2E,0x2A,0x24,0x33,0x40,0x3D,0x2F,0x1B,0xFC,0xD5,0xBA,0xA8,0xA5,0xAD,0xBE,0xD1,0xE0,0xE9,0xEA,0xE9
      85.  04:B800  E9 EA EF F6 02 10 1D 28 2F 32 32 32 2E 2A 24 33 
      85.  04:B810  40 3D 2F 1B FC D5 BA A8 A5 AD BE D1 E0 E9 EA E9 
      86.  04:B820                          db 0xF0,0xEE,0xEE,0xF7,0x00,0x0E,0x1C,0x2B,0x32,0x38,0x39,0x36,0x32,0x2B,0x25,0x21,0x37,0x2D,0x34,0x25,0x09,0xE9,0xC5,0xAE,0x9E,0xA2,0xAE,0xC5,0xD9,0xEA,0xF1,0xF1
      86.  04:B820  F0 EE EE F7 00 0E 1C 2B 32 38 39 36 32 2B 25 21 
      86.  04:B830  37 2D 34 25 09 E9 C5 AE 9E A2 AE C5 D9 EA F1 F1 
      87.  04:B840                          db 0x0A,0x01,0xFF,0xFC,0xFE,0x08,0x12,0x21,0x2C,0x34,0x37,0x33,0x31,0x26,0x20,0x13,0x25,0x1D,0x28,0x21,0x0B,0xF5,0xD0,0xB6,0xA3,0x9E,0xA9,0xBE,0xD8,0xF0,0x01,0x07
      87.  04:B840  0A 01 FF FC FE 08 12 21 2C 34 37 33 31 26 20 13 
      87.  04:B850  25 1D 28 21 0B F5 D0 B6 A3 9E A9 BE D8 F0 01 07 
      88.  04:B860                          db 0x1C,0x18,0x0B,0x06,0xFF,0x03,0x0B,0x17,0x25,0x2B,0x32,0x2D,0x28,0x1D,0x12,0x09,0x16,0x0A,0x25,0x0F,0x10,0xF0,0xD6,0xBA,0xA3,0x9F,0xA7,0xBE,0xDC,0xF9,0x0F,0x1B
      88.  04:B860  1C 18 0B 06 FF 03 0B 17 25 2B 32 2D 28 1D 12 09 
      88.  04:B870  16 0A 25 0F 10 F0 D6 BA A3 9F A7 BE DC F9 0F 1B 
      89.  04:B880                          db 0x14,0x10,0x0B,0x05,0x05,0x09,0x12,0x1D,0x26,0x2D,0x2E,0x2C,0x24,0x1C,0x0F,0x1A,0x0F,0x23,0x18,0x18,0x06,0xEA,0xD3,0xB5,0xA9,0xA4,0xB0,0xC4,0xDD,0xF6,0x08,0x12
      89.  04:B880  14 10 0B 05 05 09 12 1D 26 2D 2E 2C 24 1C 0F 1A 
      89.  04:B890  0F 23 18 18 06 EA D3 B5 A9 A4 B0 C4 DD F6 08 12 
      90.  04:B8A0                          db 0x16,0x17,0x18,0x12,0x13,0x14,0x1A,0x21,0x29,0x2F,0x33,0x31,0x2B,0x22,0x16,0x18,0x10,0x15,0x11,0x0C,0x00,0xE9,0xD1,0xB9,0xA9,0xA2,0xA8,0xB8,0xCE,0xE6,0xFB,0x0B
      90.  04:B8A0  16 17 18 12 13 14 1A 21 29 2F 33 31 2B 22 16 18 
      90.  04:B8B0  10 15 11 0C 00 E9 D1 B9 A9 A2 A8 B8 CE E6 FB 0B 
      91.  04:B8C0                          db 0x05,0x0C,0x12,0x16,0x1B,0x21,0x27,0x2D,0x32,0x34,0x33,0x2E,0x28,0x1F,0x1D,0x17,0x15,0x11,0x0C,0x03,0xF1,0xE0,0xCD,0xBD,0xB3,0xB0,0xB4,0xC0,0xCE,0xDF,0xEF,0xFC
      91.  04:B8C0  05 0C 12 16 1B 21 27 2D 32 34 33 2E 28 1F 1D 17 
      91.  04:B8D0  15 11 0C 03 F1 E0 CD BD B3 B0 B4 C0 CE DF EF FC 
      92.  04:B8E0                          db 0xF7,0x01,0x0B,0x14,0x1E,0x26,0x2C,0x31,0x33,0x32,0x30,0x2D,0x2B,0x26,0x22,0x1D,0x18,0x07,0xFC,0xEF,0xE1,0xD5,0xCB,0xC4,0xC1,0xC2,0xC6,0xCC,0xD4,0xDC,0xE5,0xEE
      92.  04:B8E0  F7 01 0B 14 1E 26 2C 31 33 32 30 2D 2B 26 22 1D 
      92.  04:B8F0  18 07 FC EF E1 D5 CB C4 C1 C2 C6 CC D4 DC E5 EE 
      93.  04:B900                          db 0xF2,0xFB,0x04,0x0D,0x15,0x1C,0x22,0x26,0x29,0x2A,0x2A,0x2A,0x28,0x24,0x1F,0x19,0x11,0x08,0xFE,0xF4,0xEA,0xE1,0xD9,0xD4,0xD0,0xCF,0xD0,0xD2,0xD6,0xDC,0xE2,0xEA
      93.  04:B900  F2 FB 04 0D 15 1C 22 26 29 2A 2A 2A 28 24 1F 19 
      93.  04:B910  11 08 FE F4 EA E1 D9 D4 D0 CF D0 D2 D6 DC E2 EA 
      94.  04:B920                          db 0xF4,0xFA,0x01,0x08,0x0E,0x14,0x18,0x1B,0x1E,0x24,0x24,0x23,0x21,0x1F,0x1A,0x15,0x0F,0x07,0xFF,0xF8,0xF0,0xE9,0xE4,0xDF,0xDC,0xDA,0xDB,0xDC,0xDF,0xE3,0xE8,0xED
      94.  04:B920  F4 FA 01 08 0E 14 18 1B 1E 24 24 23 21 1F 1A 15 
      94.  04:B930  0F 07 FF F8 F0 E9 E4 DF DC DA DB DC DF E3 E8 ED 
      95.  04:B940                          db 0xFD,0x03,0x07,0x0B,0x0F,0x12,0x10,0x13,0x14,0x15,0x15,0x18,0x19,0x19,0x18,0x15,0x10,0x09,0x01,0xF8,0xF1,0xEB,0xE7,0xE5,0xE5,0xE6,0xE8,0xEB,0xED,0xF1,0xF5,0xF9
      95.  04:B940  FD 03 07 0B 0F 12 10 13 14 15 15 18 19 19 18 15 
      95.  04:B950  10 09 01 F8 F1 EB E7 E5 E5 E6 E8 EB ED F1 F5 F9 
      96.  04:B960                          db 0x03,0x0A,0x10,0x12,0x17,0x1B,0x1D,0x1D,0x1A,0x17,0x13,0x0E,0x0B,0x0F,0x13,0x16,0x18,0x11,0x06,0xF8,0xE8,0xDA,0xD2,0xCF,0xD2,0xD8,0xDF,0xE6,0xEC,0xF3,0xF8,0xFE
      96.  04:B960  03 0A 10 12 17 1B 1D 1D 1A 17 13 0E 0B 0F 13 16 
      96.  04:B970  18 11 06 F8 E8 DA D2 CF D2 D8 DF E6 EC F3 F8 FE 
      97.  04:B980                          db 0x0A,0x12,0x1A,0x1F,0x23,0x25,0x24,0x22,0x1E,0x19,0x13,0x10,0x0A,0x11,0x15,0x1A,0x1B,0x0F,0x02,0xED,0xDD,0xD2,0xCA,0xCC,0xCE,0xD4,0xD8,0xDC,0xE2,0xE9,0xF8,0x00
      97.  04:B980  0A 12 1A 1F 23 25 24 22 1E 19 13 10 0A 11 15 1A 
      97.  04:B990  1B 0F 02 ED DD D2 CA CC CE D4 D8 DC E2 E9 F8 00 
      98.  04:B9A0                          db 0x09,0x12,0x1D,0x23,0x29,0x2D,0x2E,0x2F,0x2B,0x27,0x1F,0x1A,0x12,0x11,0x18,0x19,0x1D,0x0F,0x00,0xEB,0xD7,0xCB,0xC1,0xC1,0xC3,0xC6,0xD2,0xD4,0xD9,0xE2,0xEE,0xFB
      98.  04:B9A0  09 12 1D 23 29 2D 2E 2F 2B 27 1F 1A 12 11 18 19 
      98.  04:B9B0  1D 0F 00 EB D7 CB C1 C1 C3 C6 D2 D4 D9 E2 EE FB 
      99.  04:B9C0                          db 0x07,0x16,0x24,0x2F,0x39,0x40,0x44,0x46,0x42,0x3D,0x35,0x2B,0x22,0x20,0x1D,0x1E,0x18,0x0B,0xFA,0xE6,0xD3,0xC4,0xB6,0xB3,0xB1,0xB4,0xB8,0xBD,0xC6,0xD3,0xE4,0xF6
      99.  04:B9C0  07 16 24 2F 39 40 44 46 42 3D 35 2B 22 20 1D 1E 
      99.  04:B9D0  18 0B FA E6 D3 C4 B6 B3 B1 B4 B8 BD C6 D3 E4 F6 
     100.  04:B9E0                          db 0x39,0x43,0x42,0x37,0x2F,0x26,0x06,0xE3,0xC2,0xB0,0xAE,0xB8,0xD1,0xF0,0x0F,0x2A,0x3D,0x45,0x42,0x35,0x2C,0x23,0x10,0xF1,0xCB,0xB0,0xA7,0xAE,0xC6,0xE6,0x07,0x24
     100.  04:B9E0  39 43 42 37 2F 26 06 E3 C2 B0 AE B8 D1 F0 0F 2A 
     100.  04:B9F0  3D 45 42 35 2C 23 10 F1 CB B0 A7 AE C6 E6 07 24 
     101.  04:BA00                          db 0xF4,0x07,0x18,0x28,0x34,0x3F,0x46,0x4B,0x4C,0x4A,0x45,0x3E,0x38,0x31,0x2E,0x27,0x1E,0x13,0x06,0xF6,0xE4,0xD1,0xC0,0xB1,0xA6,0xA0,0xA0,0xA5,0xB0,0xBE,0xCF,0xE1
     101.  04:BA00  F4 07 18 28 34 3F 46 4B 4C 4A 45 3E 38 31 2E 27 
     101.  04:BA10  1E 13 06 F6 E4 D1 C0 B1 A6 A0 A0 A5 B0 BE CF E1 
     102.  04:BA20                          db 0xF4,0x08,0x1B,0x2D,0x3C,0x48,0x50,0x55,0x56,0x53,0x4B,0x44,0x3B,0x31,0x28,0x1E,0x13,0x08,0xFC,0xEE,0xDE,0xCE,0xBF,0xB2,0xA8,0xA2,0xA1,0xA5,0xAE,0xBB,0xCC,0xDF
     102.  04:BA20  F4 08 1B 2D 3C 48 50 55 56 53 4B 44 3B 31 28 1E 
     102.  04:BA30  13 08 FC EE DE CE BF B2 A8 A2 A1 A5 AE BB CC DF 
     103.  04:BA40                          db 0x05,0x29,0x46,0x55,0x55,0x48,0x33,0x1A,0xFF,0xE6,0xCF,0xBE,0xB6,0xB9,0xC7,0xDF,0xFC,0x3B,0x51,0x57,0x4D,0x39,0x23,0x0D,0xF7,0xE0,0xC9,0xB5,0xAA,0xAD,0xC0,0xDF
     103.  04:BA40  05 29 46 55 55 48 33 1A FF E6 CF BE B6 B9 C7 DF 
     103.  04:BA50  FC 3B 51 57 4D 39 23 0D F7 E0 C9 B5 AA AD C0 DF 
     104.  04:BA60                          db 0x04,0x10,0x17,0x1B,0x1B,0x18,0x13,0x0B,0x03,0xFB,0xF3,0xED,0xCD,0xD6,0xE7,0xFB,0x0F,0x1F,0x28,0x2A,0x27,0x1F,0x14,0x08,0xFB,0xEF,0xE4,0xDE,0xDC,0xE1,0xEA,0xF7
     104.  04:BA60  04 10 17 1B 1B 18 13 0B 03 FB F3 ED CD D6 E7 FB 
     104.  04:BA70  0F 1F 28 2A 27 1F 14 08 FB EF E4 DE DC E1 EA F7 
     105.  04:BA80                          db 0xFF,0x00,0x02,0x03,0x03,0x04,0x04,0x03,0x03,0x02,0x02,0x01,0x00,0x00,0xFF,0xFF,0xFF,0xFE,0xFF,0xFF,0x00,0xFE,0xFD,0xFC,0xFB,0xFA,0xFA,0xFA,0xFB,0xFC,0xFD,0xFE
     105.  04:BA80  FF 00 02 03 03 04 04 03 03 02 02 01 00 00 FF FF 
     105.  04:BA90  FF FE FF FF 00 FE FD FC FB FA FA FA FB FC FD FE 
     106.  04:BAA0                          db 0x00,0x00,0x00,0x00,0x00,0x00,0x00,0x00,0x00,0x00,0x00,0x00,0x00,0x00,0x00,0x00,0x00,0x00,0x00,0x00,0x00,0x00,0x00,0x00,0x00,0x00,0x00,0x00,0x00,0x00,0x00,0x00
     106.  04:BAA0  00 00 00 00 00 00 00 00 00 00 00 00 00 00 00 00 
     106.  04:BAB0  00 00 00 00 00 00 00 00 00 00 00 00 00 00 00 00 
     107.  04:BAC0                          db 0x01,0x01,0x01,0x01,0xFF,0x00,0x01,0x00,0x00,0x01,0x00,0x00,0x00,0x01,0x02,0x00,0xFE,0x00,0x01,0x01,0xFF,0x00,0x01,0xFF,0xFE,0xFF,0x00,0xFF,0xFF,0x01,0x00,0xFE
     107.  04:BAC0  01 01 01 01 FF 00 01 00 00 01 00 00 00 01 02 00 
     107.  04:BAD0  FE 00 01 01 FF 00 01 FF FE FF 00 FF FF 01 00 FE 
     108.  04:BAE0                          db 0x01,0x03,0x05,0x05,0x06,0x06,0x06,0x07,0x07,0x09,0x0B,0x13,0x11,0x0E,0x0D,0x06,0x01,0xFF,0xFE,0xFD,0xFD,0xFA,0xFA,0xF8,0xF8,0xF9,0xF9,0xF9,0xFB,0xFC,0xFD,0x01
     108.  04:BAE0  01 03 05 05 06 06 06 07 07 09 0B 13 11 0E 0D 06 
     108.  04:BAF0  01 FF FE FD FD FA FA F8 F8 F9 F9 F9 FB FC FD 01 
     109.  04:BB00                          db 0x09,0x16,0x1D,0x23,0x29,0x2B,0x29,0x26,0x23,0x1F,0x1C,0x16,0x1A,0x27,0x1F,0x14,0x08,0xFA,0xEE,0xEE,0xE7,0xDD,0xD5,0xD0,0xCC,0xD0,0xD5,0xDC,0xE3,0xEA,0xF5,0xFF
     109.  04:BB00  09 16 1D 23 29 2B 29 26 23 1F 1C 16 1A 27 1F 14 
     109.  04:BB10  08 FA EE EE E7 DD D5 D0 CC D0 D5 DC E3 EA F5 FF 
     110.  04:BB20                          db 0x0C,0x1D,0x2C,0x31,0x30,0x2C,0x28,0x26,0x22,0x21,0x1D,0x17,0x0D,0x15,0x2C,0x23,0x02,0xEC,0xE1,0xDB,0xE4,0xE6,0xD4,0xC1,0xBC,0xC0,0xCD,0xE0,0xEF,0xF2,0xF4,0xFD
     110.  04:BB20  0C 1D 2C 31 30 2C 28 26 22 21 1D 17 0D 15 2C 23 
     110.  04:BB30  02 EC E1 DB E4 E6 D4 C1 BC C0 CD E0 EF F2 F4 FD 
     111.  04:BB40                          db 0x0C,0x1C,0x2D,0x38,0x35,0x2E,0x28,0x23,0x1F,0x1E,0x1B,0x12,0x05,0x09,0x27,0x29,0x02,0xE2,0xDB,0xD7,0xDC,0xE5,0xDC,0xC5,0xB9,0xBE,0xCB,0xDF,0xF5,0xFF,0xFD,0x00
     111.  04:BB40  0C 1C 2D 38 35 2E 28 23 1F 1E 1B 12 05 09 27 29 
     111.  04:BB50  02 E2 DB D7 DC E5 DC C5 B9 BE CB DF F5 FF FD 00 
     112.  04:BB60                          db 0x16,0x24,0x31,0x3A,0x3C,0x38,0x2F,0x25,0x1F,0x1C,0x19,0x10,0x09,0x17,0x22,0x11,0xF7,0xE8,0xDA,0xCF,0xCF,0xCF,0xC8,0xC0,0xBC,0xBE,0xC7,0xDA,0xF7,0x02,0x07,0x0D
     112.  04:BB60  16 24 31 3A 3C 38 2F 25 1F 1C 19 10 09 17 22 11 
     112.  04:BB70  F7 E8 DA CF CF CF C8 C0 BC BE C7 DA F7 02 07 0D 
     113.  04:BB80                          db 0x29,0x35,0x3F,0x46,0x4A,0x4A,0x45,0x3E,0x36,0x2B,0x20,0x17,0x15,0x11,0x09,0x00,0xF8,0xEB,0xDB,0xCC,0xC0,0xB7,0xB2,0xB0,0xB2,0xB9,0xC5,0xD7,0xE9,0xFA,0x0A,0x1B
     113.  04:BB80  29 35 3F 46 4A 4A 45 3E 36 2B 20 17 15 11 09 00 
     113.  04:BB90  F8 EB DB CC C0 B7 B2 B0 B2 B9 C5 D7 E9 FA 0A 1B 
     114.  04:BBA0                          db 0x57,0x53,0x40,0x29,0x16,0x06,0xF3,0xD4,0xB6,0xA4,0xA9,0xC2,0xE5,0x08,0x25,0x39,0x45,0x47,0x3D,0x2D,0x0F,0x02,0xEF,0xCE,0xAD,0x9A,0xA1,0xBF,0xE8,0x12,0x34,0x4C
     114.  04:BBA0  57 53 40 29 16 06 F3 D4 B6 A4 A9 C2 E5 08 25 39 
     114.  04:BBB0  45 47 3D 2D 0F 02 EF CE AD 9A A1 BF E8 12 34 4C 
     115.  04:BBC0                          db 0x18,0x24,0x2E,0x36,0x3C,0x44,0x44,0x43,0x3D,0x36,0x2C,0x26,0x22,0x1C,0x17,0x13,0x09,0xFC,0xEC,0xD9,0xC7,0xB9,0xAE,0xA9,0xAA,0xB0,0xBB,0xCA,0xDA,0xEA,0xFB,0x0A
     115.  04:BBC0  18 24 2E 36 3C 44 44 43 3D 36 2C 26 22 1C 17 13 
     115.  04:BBD0  09 FC EC D9 C7 B9 AE A9 AA B0 BB CA DA EA FB 0A 
     116.  04:BBE0                          db 0x11,0x1C,0x26,0x2E,0x33,0x36,0x36,0x33,0x2C,0x26,0x1B,0x14,0x0C,0x0F,0x12,0x15,0x14,0x0B,0xFC,0xE9,0xD4,0xC4,0xB9,0xB5,0xB8,0xBF,0xCA,0xD7,0xE4,0xF3,0xFF,0x05
     116.  04:BBE0  11 1C 26 2E 33 36 36 33 2C 26 1B 14 0C 0F 12 15 
     116.  04:BBF0  14 0B FC E9 D4 C4 B9 B5 B8 BF CA D7 E4 F3 FF 05 
     117.  04:BC00                          db 0x12,0x18,0x20,0x26,0x2C,0x30,0x31,0x2F,0x29,0x1E,0x16,0x0A,0x05,0xFC,0x07,0x0F,0x19,0x1D,0x0E,0xFC,0xDE,0xC3,0xB2,0xAA,0xB4,0xBD,0xCD,0xDD,0xEB,0xF8,0x02,0x0A
     117.  04:BC00  12 18 20 26 2C 30 31 2F 29 1E 16 0A 05 FC 07 0F 
     117.  04:BC10  19 1D 0E FC DE C3 B2 AA B4 BD CD DD EB F8 02 0A 
     118.  04:BC20                          db 0x09,0x12,0x1D,0x27,0x2E,0x32,0x31,0x2D,0x24,0x1A,0x0F,0x07,0xFF,0xFD,0xFB,0x0C,0x13,0x21,0x13,0x00,0xE5,0xC6,0xB6,0xAD,0xB7,0xC9,0xDA,0xED,0xF5,0xFB,0xFF,0x02
     118.  04:BC20  09 12 1D 27 2E 32 31 2D 24 1A 0F 07 FF FD FB 0C 
     118.  04:BC30  13 21 13 00 E5 C6 B6 AD B7 C9 DA ED F5 FB FF 02 
     119.  04:BC40                          db 0x09,0x16,0x26,0x2F,0x36,0x36,0x33,0x2C,0x21,0x15,0x0E,0x03,0x01,0xFC,0xFE,0x13,0x12,0x22,0x0D,0xF9,0xDD,0xBE,0xB7,0xAF,0xC2,0xD2,0xE2,0xEF,0xF0,0xF4,0xF5,0xFD
     119.  04:BC40  09 16 26 2F 36 36 33 2C 21 15 0E 03 01 FC FE 13 
     119.  04:BC50  12 22 0D F9 DD BE B7 AF C2 D2 E2 EF F0 F4 F5 FD 
     120.  04:BC60                          db 0x0A,0x1A,0x27,0x32,0x37,0x3A,0x38,0x33,0x2D,0x21,0x16,0x0D,0x02,0xFF,0xF7,0x09,0x0C,0x16,0x0F,0xF7,0xE4,0xC6,0xBF,0xB7,0xC0,0xCB,0xD2,0xDA,0xDC,0xE4,0xF0,0xFE
     120.  04:BC60  0A 1A 27 32 37 3A 38 33 2D 21 16 0D 02 FF F7 09 
     120.  04:BC70  0C 16 0F F7 E4 C6 BF B7 C0 CB D2 DA DC E4 F0 FE 
     121.  04:BC80                          db 0x1A,0x27,0x2F,0x37,0x3C,0x40,0x3F,0x3A,0x30,0x21,0x13,0x06,0xFD,0xF4,0xF2,0xFD,0x01,0x0B,0xFC,0xF4,0xDF,0xD6,0xC8,0xC3,0xC7,0xC6,0xCB,0xCB,0xD4,0xE3,0xF6,0x0B
     121.  04:BC80  1A 27 2F 37 3C 40 3F 3A 30 21 13 06 FD F4 F2 FD 
     121.  04:BC90  01 0B FC F4 DF D6 C8 C3 C7 C6 CB CB D4 E3 F6 0B 
     122.  04:BCA0                          db 0x14,0x22,0x2F,0x39,0x41,0x46,0x46,0x40,0x35,0x26,0x17,0x08,0xFD,0xF2,0xEB,0xF0,0xF6,0xFF,0xFB,0xF5,0xE8,0xE0,0xD6,0xD2,0xCD,0xCC,0xC9,0xC9,0xCF,0xDC,0xF0,0x03
     122.  04:BCA0  14 22 2F 39 41 46 46 40 35 26 17 08 FD F2 EB F0 
     122.  04:BCB0  F6 FF FB F5 E8 E0 D6 D2 CD CC C9 C9 CF DC F0 03 
     123.  04:BCC0                          db 0x0A,0x1A,0x2D,0x39,0x42,0x47,0x49,0x43,0x3A,0x2B,0x1D,0x0D,0x01,0xF3,0xEE,0xED,0xF5,0xF5,0xF6,0xEF,0xEB,0xE2,0xDC,0xD4,0xD0,0xCB,0xC9,0xC9,0xCF,0xDA,0xEA,0xFA
     123.  04:BCC0  0A 1A 2D 39 42 47 49 43 3A 2B 1D 0D 01 F3 EE ED 
     123.  04:BCD0  F5 F5 F6 EF EB E2 DC D4 D0 CB C9 C9 CF DA EA FA 
     124.  04:BCE0                          db 0x09,0x1A,0x28,0x34,0x3D,0x42,0x44,0x41,0x3A,0x31,0x26,0x1A,0x0C,0x03,0xFE,0xFC,0xFB,0xF9,0xF5,0xF1,0xE8,0xDE,0xD7,0xCE,0xC7,0xC3,0xC1,0xC4,0xCC,0xD9,0xE8,0xF8
     124.  04:BCE0  09 1A 28 34 3D 42 44 41 3A 31 26 1A 0C 03 FE FC 
     124.  04:BCF0  FB F9 F5 F1 E8 DE D7 CE C7 C3 C1 C4 CC D9 E8 F8 
     125.  04:BD00                          db 0x0D,0x1E,0x2D,0x39,0x42,0x47,0x48,0x45,0x3E,0x35,0x29,0x20,0x13,0x08,0x01,0xFC,0xF8,0xF5,0xF2,0xED,0xE5,0xDB,0xD1,0xC8,0xC0,0xBB,0xBB,0xC0,0xCA,0xD7,0xE8,0xFA
     125.  04:BD00  0D 1E 2D 39 42 47 48 45 3E 35 29 20 13 08 01 FC 
     125.  04:BD10  F8 F5 F2 ED E5 DB D1 C8 C0 BB BB C0 CA D7 E8 FA 
     126.  04:BD20                          db 0x0A,0x1A,0x29,0x36,0x3F,0x45,0x46,0x43,0x3D,0x33,0x27,0x1A,0x0E,0x04,0xFC,0xF5,0xF1,0xED,0xEA,0xE6,0xE1,0xDB,0xD5,0xD0,0xCB,0xC8,0xC9,0xCD,0xD5,0xE0,0xE8,0xF8
     126.  04:BD20  0A 1A 29 36 3F 45 46 43 3D 33 27 1A 0E 04 FC F5 
     126.  04:BD30  F1 ED EA E6 E1 DB D5 D0 CB C8 C9 CD D5 E0 E8 F8 
     127.  04:BD40                          db 0x08,0x17,0x24,0x2F,0x38,0x3D,0x3E,0x3C,0x36,0x2D,0x22,0x16,0x0B,0x00,0xF8,0xF1,0xEB,0xE8,0xE8,0xE5,0xE2,0xDE,0xDB,0xD7,0xD4,0xD2,0xD2,0xD4,0xDA,0xE2,0xED,0xFA
     127.  04:BD40  08 17 24 2F 38 3D 3E 3C 36 2D 22 16 0B 00 F8 F1 
     127.  04:BD50  EB E8 E8 E5 E2 DE DB D7 D4 D2 D2 D4 DA E2 ED FA 
     128.  04:BD60                          db 0x08,0x12,0x1C,0x25,0x2E,0x33,0x36,0x35,0x31,0x2B,0x23,0x19,0x0F,0x05,0xFD,0xF5,0xEF,0xEB,0xE7,0xE4,0xE2,0xE0,0xDE,0xDD,0xDC,0xDC,0xDE,0xE1,0xE5,0xEC,0xF4,0xFE
     128.  04:BD60  08 12 1C 25 2E 33 36 35 31 2B 23 19 0F 05 FD F5 
     128.  04:BD70  EF EB E7 E4 E2 E0 DE DD DC DC DE E1 E5 EC F4 FE 
     129.  04:BD80                          db 0x06,0x0E,0x15,0x1C,0x21,0x24,0x26,0x25,0x22,0x1E,0x19,0x13,0x0C,0x06,0xFF,0xF9,0xF4,0xF0,0xEC,0xE8,0xE6,0xE4,0xE1,0xDF,0xDF,0xE0,0xE2,0xE5,0xE9,0xEF,0xF6,0xFE
     129.  04:BD80  06 0E 15 1C 21 24 26 25 22 1E 19 13 0C 06 FF F9 
     129.  04:BD90  F4 F0 EC E8 E6 E4 E1 DF DF E0 E2 E5 E9 EF F6 FE 
     130.  04:BDA0                          db 0x03,0x02,0x02,0x01,0x01,0x00,0xFF,0xFF,0xFF,0x0B,0x0A,0x09,0x07,0x04,0x02,0xFF,0xFD,0xFB,0xFA,0xF9,0xF9,0xFA,0xFA,0xFB,0xFD,0xFE,0x00,0x01,0x02,0x03,0x03,0x03
     130.  04:BDA0  03 02 02 01 01 00 FF FF FF 0B 0A 09 07 04 02 FF 
     130.  04:BDB0  FD FB FA F9 F9 FA FA FB FD FE 00 01 02 03 03 03 
     131.  04:BDC0                          CODE
     132.  04:7D60                      data2:
     133.  04:7D60                          db 0x08,0x0A,0x0B,0x0D,0x0D,0x0D,0x0D,0x0C,0x0C,0x0A,0x08,0x07,0x05,0x03,0x00,0xFE,0xFB,0xF8,0xF6,0xF3,0xF0,0xEF,0xED,0xEC,0xEB,0xEB,0xEC,0xEE,0xF0,0xF4,0xF8,0xFD
     133.  04:7D60  08 0A 0B 0D 0D 0D 0D 0C 0C 0A 08 07 05 03 00 FE 
     133.  04:7D70  FB F8 F6 F3 F0 EF ED EC EB EB EC EE F0 F4 F8 FD 
     134.  04:7D80                          db 0x17,0x24,0x2E,0x35,0x37,0x37,0x34,0x2E,0x27,0x22,0x1B,0x15,0x0F,0x0B,0x07,0x02,0xFD,0xF7,0xF1,0xEB,0xE4,0xDD,0xD5,0xCE,0xC8,0xC3,0xC4,0xD2,0xDC,0xEB,0xFB,0x09
     134.  04:7D80  17 24 2E 35 37 37 34 2E 27 22 1B 15 0F 0B 07 02 
     134.  04:7D90  FD F7 F1 EB E4 DD D5 CE C8 C3 C4 D2 DC EB FB 09 
     135.  04:7DA0                          db 0x1B,0x2A,0x34,0x39,0x3A,0x38,0x32,0x2B,0x26,0x20,0x1A,0x14,0x0F,0x0B,0x06,0x03,0xFE,0xF7,0xF1,0xE9,0xE1,0xD8,0xCE,0xC5,0xBC,0xB9,0xC0,0xC8,0xD5,0xE7,0xF9,0x0D
     135.  04:7DA0  1B 2A 34 39 3A 38 32 2B 26 20 1A 14 0F 0B 06 03 
     135.  04:7DB0  FE F7 F1 E9 E1 D8 CE C5 BC B9 C0 C8 D5 E7 F9 0D 
     136.  04:7DC0                          db 0x22,0x34,0x3F,0x43,0x44,0x40,0x38,0x30,0x28,0x21,0x18,0x11,0x0D,0x08,0x05,0x02,0xFE,0xF8,0xF2,0xE9,0xE0,0xD5,0xC9,0xBD,0xB1,0xB1,0xB7,0xBF,0xD1,0xE5,0xFB,0x0F
     136.  04:7DC0  22 34 3F 43 44 40 38 30 28 21 18 11 0D 08 05 02 
     136.  04:7DD0  FE F8 F2 E9 E0 D5 C9 BD B1 B1 B7 BF D1 E5 FB 0F 
     137.  04:7DE0                          db 0x26,0x37,0x42,0x47,0x47,0x40,0x36,0x2D,0x26,0x1C,0x13,0x0E,0x0B,0x07,0x05,0x05,0x02,0xFD,0xF7,0xEE,0xE3,0xD6,0xC8,0xB9,0xAE,0xAE,0xB1,0xBC,0xCF,0xE5,0xFB,0x11
     137.  04:7DE0  26 37 42 47 47 40 36 2D 26 1C 13 0E 0B 07 05 05 
     137.  04:7DF0  02 FD F7 EE E3 D6 C8 B9 AE AE B1 BC CF E5 FB 11 
     138.  04:7E00                          db 0x19,0x1D,0x21,0x23,0x20,0x1C,0x1A,0x16,0x16,0x19,0x19,0x16,0x0C,0x04,0x00,0x01,0xFF,0xFB,0xFA,0xF4,0xEA,0xE2,0xD9,0xCC,0xC5,0xCE,0xD3,0xD9,0xEA,0xF8,0x00,0x0E
     138.  04:7E00  19 1D 21 23 20 1C 1A 16 16 19 19 16 0C 04 00 01 
     138.  04:7E10  FF FB FA F4 EA E2 D9 CC C5 CE D3 D9 EA F8 00 0E 
     139.  04:7E20                          db 0x1F,0x1A,0x16,0x14,0x09,0x0A,0x0A,0x08,0x11,0x17,0x1A,0x1F,0x1E,0x17,0x15,0x0E,0x07,0x01,0xF9,0xF3,0xE9,0xE0,0xD6,0xCC,0xC2,0xC4,0xD2,0xE2,0xF2,0x0A,0x10,0x19
     139.  04:7E20  1F 1A 16 14 09 0A 0A 08 11 17 1A 1F 1E 17 15 0E 
     139.  04:7E30  07 01 F9 F3 E9 E0 D6 CC C2 C4 D2 E2 F2 0A 10 19 
     140.  04:7E40                          db 0x1B,0x13,0x0F,0x0B,0x00,0x06,0x05,0x0A,0x15,0x17,0x1F,0x26,0x1F,0x1D,0x17,0x0B,0x09,0x03,0xF9,0xF8,0xEC,0xE0,0xDC,0xCE,0xC2,0xC1,0xD6,0xE3,0xF6,0x0F,0x12,0x1A
     140.  04:7E40  1B 13 0F 0B 00 06 05 0A 15 17 1F 26 1F 1D 17 0B 
     140.  04:7E50  09 03 F9 F8 EC E0 DC CE C2 C1 D6 E3 F6 0F 12 1A 
     141.  04:7E60                          db 0x1A,0x13,0x0C,0x0E,0xFD,0x06,0x04,0x08,0x12,0x19,0x1D,0x28,0x25,0x20,0x1B,0x0F,0x08,0x02,0xF7,0xF3,0xEB,0xDF,0xDC,0xD1,0xCB,0xC1,0xD5,0xE4,0xEE,0x0B,0x0D,0x14
     141.  04:7E60  1A 13 0C 0E FD 06 04 08 12 19 1D 28 25 20 1B 0F 
     141.  04:7E70  08 02 F7 F3 EB DF DC D1 CB C1 D5 E4 EE 0B 0D 14 
     142.  04:7E80                          db 0x10,0x13,0x10,0x15,0x0F,0x10,0x11,0x0F,0x13,0x15,0x19,0x1F,0x22,0x1E,0x1D,0x13,0x0B,0xFF,0xF4,0xED,0xE6,0xDE,0xDD,0xD5,0xD3,0xCE,0xD6,0xE5,0xEB,0xFD,0x05,0x0B
     142.  04:7E80  10 13 10 15 0F 10 11 0F 13 15 19 1F 22 1E 1D 13 
     142.  04:7E90  0B FF F4 ED E6 DE DD D5 D3 CE D6 E5 EB FD 05 0B 
     143.  04:7EA0                          db 0x02,0x04,0x05,0x07,0x07,0x0A,0x0A,0x0E,0x0D,0x10,0x0D,0x11,0x0E,0x0E,0x0A,0x05,0x03,0x00,0xFE,0xF0,0xEF,0xED,0xEC,0xEA,0xED,0xEE,0xF1,0xF3,0xF7,0xF9,0xFD,0xFE
     143.  04:7EA0  02 04 05 07 07 0A 0A 0E 0D 10 0D 11 0E 0E 0A 05 
     143.  04:7EB0  03 00 FE F0 EF ED EC EA ED EE F1 F3 F7 F9 FD FE 
     144.  04:7EC0                          db 0xFD,0xFD,0x06,0xFD,0xFC,0x06,0xFE,0xFD,0x03,0x00,0xFC,0x06,0xFF,0xFE,0x03,0x01,0x00,0xFB,0x09,0xFD,0xF8,0x09,0xFD,0xFB,0x05,0x00,0xFA,0x06,0x01,0xFB,0x03,0x04
     144.  04:7EC0  FD FD 06 FD FC 06 FE FD 03 00 FC 06 FF FE 03 01 
     144.  04:7ED0  00 FB 09 FD F8 09 FD FB 05 00 FA 06 01 FB 03 04 
     145.  04:7EE0                          db 0x02,0xFC,0x06,0xFB,0xFE,0x07,0xFA,0x00,0x04,0xFC,0x02,0x02,0xF9,0x06,0xFD,0x00,0x00,0xFC,0x0B,0xF7,0xFF,0x0B,0xF4,0x07,0x00,0xFF,0xFD,0x07,0xFA,0xFF,0x03,0xFF
     145.  04:7EE0  02 FC 06 FB FE 07 FA 00 04 FC 02 02 F9 06 FD 00 
     145.  04:7EF0  00 FC 0B F7 FF 0B F4 07 00 FF FD 07 FA FF 03 FF 
     146.  04:7F00                          db 0xF8,0x04,0x06,0xF7,0x03,0x09,0xF3,0x01,0x06,0x03,0xF0,0x10,0xFF,0xF3,0x0A,0x04,0xF8,0xFD,0x0E,0xF3,0x04,0x07,0xF4,0x07,0x00,0x01,0xF9,0x0B,0xFE,0xF3,0x11,0xFB
     146.  04:7F00  F8 04 06 F7 03 09 F3 01 06 03 F0 10 FF F3 0A 04 
     146.  04:7F10  F8 FD 0E F3 04 07 F4 07 00 01 F9 0B FE F3 11 FB 
     147.  04:7F20                          db 0xEF,0x05,0x0B,0xF4,0x00,0x0F,0xF0,0xFF,0x0F,0xF7,0xF5,0x17,0xFC,0xEC,0x0F,0x0C,0xEA,0x07,0x10,0xEA,0x05,0x10,0xED,0x01,0x15,0xEA,0xFF,0x10,0x01,0xE4,0x18,0x03
     147.  04:7F20  EF 05 0B F4 00 0F F0 FF 0F F7 F5 17 FC EC 0F 0C 
     147.  04:7F30  EA 07 10 EA 05 10 ED 01 15 EA FF 10 01 E4 18 03 
     148.  04:7F40                          db 0xFD,0xFF,0x04,0xFC,0x01,0x03,0x00,0xFA,0x0C,0xF9,0xFE,0x07,0xFD,0xFE,0x03,0x03,0xFA,0x03,0x05,0xF6,0x06,0x00,0x00,0x01,0xFE,0x03,0xFE,0x03,0x01,0xF8,0x08,0xFE
     148.  04:7F40  FD FF 04 FC 01 03 00 FA 0C F9 FE 07 FD FE 03 03 
     148.  04:7F50  FA 03 05 F6 06 00 00 01 FE 03 FE 03 01 F8 08 FE 
     149.  04:7F60                          db 0xF9,0x09,0x00,0xF7,0x06,0x02,0xFD,0xFA,0x0E,0xF4,0x01,0x0A,0xF6,0x03,0x03,0x01,0xFB,0x04,0x02,0xFB,0x05,0xFD,0xFE,0x04,0x00,0xFF,0xFA,0x0A,0xFB,0xFC,0x06,0xFE
     149.  04:7F60  F9 09 00 F7 06 02 FD FA 0E F4 01 0A F6 03 03 01 
     149.  04:7F70  FB 04 02 FB 05 FD FE 04 00 FF FA 0A FB FC 06 FE 
     150.  04:7F80                          db 0xFC,0x03,0x01,0xFD,0x01,0xFF,0x02,0xFF,0x00,0xFE,0x01,0x01,0xFE,0x00,0x00,0x05,0xF9,0x03,0x02,0xFB,0x05,0x00,0xFC,0x04,0x01,0x00,0xFF,0x00,0x03,0xFD,0x02,0x01
     150.  04:7F80  FC 03 01 FD 01 FF 02 FF 00 FE 01 01 FE 00 00 05 
     150.  04:7F90  F9 03 02 FB 05 00 FC 04 01 00 FF 00 03 FD 02 01 
     151.  04:7FA0                          db 0xF4,0xFD,0xFD,0xFC,0xFB,0xFB,0xFA,0xF9,0xFA,0xFA,0xFC,0xFE,0x00,0x03,0x05,0x07,0x07,0x09,0x08,0x08,0x09,0x08,0x08,0x07,0x06,0x04,0x03,0x00,0xFE,0xFC,0xF8,0xF6
     151.  04:7FA0  F4 FD FD FC FB FB FA F9 FA FA FC FE 00 03 05 07 
     151.  04:7FB0  07 09 08 08 09 08 08 07 06 04 03 00 FE FC F8 F6 
     152.  04:7FC0                          db 0xFF,0xF8,0xF1,0xE6,0xD5,0xCB,0xC1,0xCC,0xDB,0xEB,0x00,0x0E,0x11,0x15,0x13,0x0D,0x0D,0x07,0x0A,0x0E,0x12,0x13,0x16,0x16,0x16,0x16,0x15,0x11,0x11,0x0C,0x07,0x04
     152.  04:7FC0  FF F8 F1 E6 D5 CB C1 CC DB EB 00 0E 11 15 13 0D 
     152.  04:7FD0  0D 07 0A 0E 12 13 16 16 16 16 15 11 11 0C 07 04 
     153.  04:7FE0                          db 0x09,0x03,0xFB,0xEE,0xDB,0xC9,0xC3,0xD1,0xDD,0xF2,0x04,0x0B,0x11,0x13,0x0D,0x0F,0x0E,0x0F,0x12,0x11,0x0F,0x11,0x0F,0x0D,0x0B,0x06,0x06,0x04,0x03,0x06,0x09,0x0A
     153.  04:7FE0  09 03 FB EE DB C9 C3 D1 DD F2 04 0B 11 13 0D 0F 
     153.  04:7FF0  0E 0F 12 11 0F 11 0F 0D 0B 06 06 04 03 06 09 0A 
     154.  04:8000                          db 0x0A,0x05,0xFE,0xF1,0xE0,0xCF,0xCC,0xD1,0xD8,0xE9,0xF5,0xFF,0x0D,0x11,0x16,0x1A,0x1A,0x1A,0x16,0x11,0x0E,0x0C,0x0A,0x09,0x07,0x05,0x04,0x02,0x03,0x07,0x09,0x0C
     154.  04:8000  0A 05 FE F1 E0 CF CC D1 D8 E9 F5 FF 0D 11 16 1A 
     154.  04:8010  1A 1A 16 11 0E 0C 0A 09 07 05 04 02 03 07 09 0C 
     155.  04:8020                          db 0x05,0xFE,0xF4,0xE7,0xD9,0xCF,0xCB,0xCC,0xD4,0xDF,0xEE,0xFF,0x0E,0x1C,0x26,0x2B,0x2B,0x26,0x1E,0x17,0x0F,0x09,0x04,0x00,0xFF,0xFE,0xFF,0x03,0x07,0x09,0x0B,0x09
     155.  04:8020  05 FE F4 E7 D9 CF CB CC D4 DF EE FF 0E 1C 26 2B 
     155.  04:8030  2B 26 1E 17 0F 09 04 00 FF FE FF 03 07 09 0B 09 
     156.  04:8040                          db 0x00,0xF7,0xEC,0xE0,0xD6,0xCF,0xCC,0xCF,0xD6,0xE2,0xF1,0x00,0x0F,0x1C,0x25,0x2A,0x2B,0x26,0x20,0x18,0x11,0x0B,0x06,0x03,0x03,0x03,0x03,0x07,0x09,0x0A,0x0A,0x06
     156.  04:8040  00 F7 EC E0 D6 CF CC CF D6 E2 F1 00 0F 1C 25 2A 
     156.  04:8050  2B 26 20 18 11 0B 06 03 03 03 03 07 09 0A 0A 06 
     157.  04:8060                          db 0xF8,0xF3,0xEE,0xE7,0xE0,0xDA,0xD6,0xD8,0xDE,0xE7,0xF3,0x00,0x0D,0x18,0x20,0x26,0x27,0x23,0x1D,0x17,0x11,0x0C,0x08,0x05,0x03,0x02,0x03,0x03,0x02,0x01,0xFF,0xFC
     157.  04:8060  F8 F3 EE E7 E0 DA D6 D8 DE E7 F3 00 0D 18 20 26 
     157.  04:8070  27 23 1D 17 11 0C 08 05 03 02 03 03 02 01 FF FC 
     158.  04:8080                          db 0xF9,0xF8,0xF6,0xF4,0xF2,0xF1,0xF0,0xF0,0xF2,0xF5,0xFA,0xFF,0x04,0x08,0x0C,0x0F,0x11,0x11,0x10,0x0E,0x0C,0x0A,0x07,0x05,0x02,0x00,0xFE,0xFC,0xFB,0xFA,0xFA,0xFA
     158.  04:8080  F9 F8 F6 F4 F2 F1 F0 F0 F2 F5 FA FF 04 08 0C 0F 
     158.  04:8090  11 11 10 0E 0C 0A 07 05 02 00 FE FC FB FA FA FA 
     159.  04:80A0                          db 0xFE,0xFF,0x00,0x00,0x00,0x00,0x01,0x00,0x00,0x00,0x00,0x00,0xFF,0x01,0x02,0x03,0x04,0x04,0x04,0x03,0x03,0x02,0x02,0x01,0x00,0xFF,0xFE,0xFE,0xFE,0xFE,0xFF,0xFF
     159.  04:80A0  FE FF 00 00 00 00 01 00 00 00 00 00 FF 01 02 03 
     159.  04:80B0  04 04 04 03 03 02 02 01 00 FF FE FE FE FE FF FF 
     160.  04:80C0                          db 0x00,0x00,0xFE,0x00,0x00,0x00,0x01,0x00,0x00,0x00,0x00,0x00,0x00,0x00,0xFF,0x00,0x02,0x04,0xFE,0xFD,0x03,0xFF,0xFE,0x02,0x00,0xFE,0x01,0x00,0xFF,0x02,0x00,0xFE
     160.  04:80C0  00 00 FE 00 00 00 01 00 00 00 00 00 00 00 FF 00 
     160.  04:80D0  02 04 FE FD 03 FF FE 02 00 FE 01 00 FF 02 00 FE 
     161.  04:80E0                          db 0xFD,0xFF,0x02,0x00,0x06,0x02,0xFA,0xFE,0x00,0xFE,0x01,0x01,0xFF,0x00,0x03,0x00,0x02,0x08,0xFF,0xFA,0x00,0xFD,0xFB,0x03,0x00,0xFD,0x04,0x05,0x01,0xFE,0xFE,0xFF
     161.  04:80E0  FD FF 02 00 06 02 FA FE 00 FE 01 01 FF 00 03 00 
     161.  04:80F0  02 08 FF FA 00 FD FB 03 00 FD 04 05 01 FE FE FF 
     162.  04:8100                          db 0x04,0x01,0xFB,0xFE,0x02,0xFE,0xFB,0xFE,0x01,0xFF,0xFE,0x01,0x01,0x00,0x00,0x01,0x09,0x08,0xFE,0xFA,0x01,0x01,0xFA,0xFD,0x04,0x03,0xFC,0xFF,0x06,0x04,0xFD,0xFE
     162.  04:8100  04 01 FB FE 02 FE FB FE 01 FF FE 01 01 00 00 01 
     162.  04:8110  09 08 FE FA 01 01 FA FD 04 03 FC FF 06 04 FD FE 
     163.  04:8120                          db 0xFF,0x00,0xFF,0xFF,0x00,0x01,0x00,0xFE,0x02,0x03,0x02,0x02,0x06,0x06,0x03,0x02,0x05,0x06,0x04,0x01,0x02,0x02,0xFD,0xFB,0xFD,0xFE,0xFF,0x00,0x01,0xFF,0xFE,0xFD
     163.  04:8120  FF 00 FF FF 00 01 00 FE 02 03 02 02 06 06 03 02 
     163.  04:8130  05 06 04 01 02 02 FD FB FD FE FF 00 01 FF FE FD 
     164.  04:8140                          db 0xEE,0xFC,0x06,0x07,0x06,0x0A,0x0B,0x0E,0x0E,0x11,0x15,0x1B,0x1E,0x20,0x1F,0x1C,0x18,0x13,0x0E,0x08,0x04,0x01,0xFA,0xF2,0xE8,0xE2,0xDC,0xD7,0xD4,0xD7,0xDD,0xE2
     164.  04:8140  EE FC 06 07 06 0A 0B 0E 0E 11 15 1B 1E 20 1F 1C 
     164.  04:8150  18 13 0E 08 04 01 FA F2 E8 E2 DC D7 D4 D7 DD E2 
     165.  04:8160                          db 0xF8,0x0F,0x14,0x11,0x0E,0x0F,0x0E,0x0A,0x08,0x08,0x0C,0x10,0x12,0x14,0x19,0x1E,0x20,0x18,0x13,0x10,0x09,0x00,0xF8,0xF2,0xED,0xE4,0xDA,0xD1,0xCB,0xC6,0xC6,0xD9
     165.  04:8160  F8 0F 14 11 0E 0F 0E 0A 08 08 0C 10 12 14 19 1E 
     165.  04:8170  20 18 13 10 09 00 F8 F2 ED E4 DA D1 CB C6 C6 D9 
     166.  04:8180                          db 0xEB,0xF0,0xF7,0x00,0x07,0x0D,0x12,0x17,0x19,0x1A,0x1A,0x1A,0x1B,0x1C,0x1B,0x17,0x12,0x0F,0x0B,0x06,0x03,0x01,0xFF,0xFB,0xEA,0xE3,0xDC,0xD9,0xDC,0xE2,0xE7,0xE9
     166.  04:8180  EB F0 F7 00 07 0D 12 17 19 1A 1A 1A 1B 1C 1B 17 
     166.  04:8190  12 0F 0B 06 03 01 FF FB EA E3 DC D9 DC E2 E7 E9 
     167.  04:81A0                          db 0xD6,0xE1,0xEF,0xFA,0x07,0x16,0x23,0x2C,0x2E,0x2E,0x2D,0x28,0x21,0x17,0x0F,0x09,0x04,0xFD,0xFA,0xFA,0xFB,0xFB,0xFA,0xF9,0xF8,0xF3,0xEC,0xE3,0xDD,0xDB,0xD7,0xD3
     167.  04:81A0  D6 E1 EF FA 07 16 23 2C 2E 2E 2D 28 21 17 0F 09 
     167.  04:81B0  04 FD FA FA FB FB FA F9 F8 F3 EC E3 DD DB D7 D3 
     168.  04:81C0                          db 0xE3,0xE8,0xF2,0xFB,0x06,0x12,0x1D,0x22,0x25,0x26,0x25,0x20,0x19,0x12,0x0C,0x07,0x02,0xFD,0xFC,0xFC,0xFC,0xFC,0xFB,0xFC,0xFA,0xF6,0xF1,0xEC,0xE8,0xE5,0xE2,0xE1
     168.  04:81C0  E3 E8 F2 FB 06 12 1D 22 25 26 25 20 19 12 0C 07 
     168.  04:81D0  02 FD FC FC FC FC FB FC FA F6 F1 EC E8 E5 E2 E1 
     169.  04:81E0                          db 0xFA,0xF6,0xFA,0xFE,0x03,0x07,0x0B,0x0D,0x0E,0x0F,0x0E,0x0D,0x0B,0x09,0x07,0x05,0x04,0x02,0x01,0xFF,0xFE,0xFD,0xFC,0xFB,0xFA,0xFA,0xF9,0xF8,0xF8,0xF8,0xF8,0xF9
     169.  04:81E0  FA F6 FA FE 03 07 0B 0D 0E 0F 0E 0D 0B 09 07 05 
     169.  04:81F0  04 02 01 FF FE FD FC FB FA FA F9 F8 F8 F8 F8 F9 
     170.  04:8200                          db 0xFE,0xFE,0xFF,0xFF,0x00,0x00,0x01,0x01,0x01,0x01,0x01,0x01,0x00,0x00,0x00,0xFF,0xFF,0xFF,0xFF,0x00,0x00,0x00,0x01,0x01,0x01,0x01,0x01,0x00,0x00,0x00,0x00,0xFF
     170.  04:8200  FE FE FF FF 00 00 01 01 01 01 01 01 00 00 00 FF 
     170.  04:8210  FF FF FF 00 00 00 01 01 01 01 01 00 00 00 00 FF 
     171.  04:8220                          db 0x00,0x00,0x00,0x00,0x00,0x00,0x00,0x01,0x01,0x01,0x01,0x01,0x00,0x00,0x00,0x00,0x00,0x00,0x00,0x00,0x00,0x00,0x00,0x00,0x00,0x00,0x00,0x00,0x00,0x00,0x00,0x00
     171.  04:8220  00 00 00 00 00 00 00 01 01 01 01 01 00 00 00 00 
     171.  04:8230  00 00 00 00 00 00 00 00 00 00 00 00 00 00 00 00 
     172.  04:8240                          db 0xFD,0x00,0x02,0x00,0x00,0x00,0x00,0x00,0x01,0x00,0x01,0x00,0x01,0x00,0x00,0x00,0x00,0x00,0x00,0x00,0xFF,0x00,0xFF,0xFE,0x00,0xFF,0xFF,0x02,0x00,0x00,0x01,0x00
     172.  04:8240  FD 00 02 00 00 00 00 00 01 00 01 00 01 00 00 00 
     172.  04:8250  00 00 00 00 FF 00 FF FE 00 FF FF 02 00 00 01 00 
     173.  04:8260                          db 0xFF,0x00,0x01,0x00,0x00,0x00,0xFF,0x00,0x01,0x02,0x02,0x00,0xFF,0xFF,0xFF,0x00,0x00,0x00,0x00,0x00,0x00,0x00,0x00,0x00,0x00,0x00,0x00,0x02,0x01,0xFF,0xFF,0x00
     173.  04:8260  FF 00 01 00 00 00 FF 00 01 02 02 00 FF FF FF 00 
     173.  04:8270  00 00 00 00 00 00 00 00 00 00 00 02 01 FF FF 00 
     174.  04:8280                          db 0xFE,0xFF,0x00,0xFF,0x00,0x01,0x00,0x01,0x01,0x00,0x02,0x01,0xFE,0xFF,0xFF,0x01,0x00,0xFF,0x00,0xFF,0xFF,0x01,0x01,0x01,0x01,0x00,0x01,0x01,0x00,0x00,0xFF,0xFF
     174.  04:8280  FE FF 00 FF 00 01 00 01 01 00 02 01 FE FF FF 01 
     174.  04:8290  00 FF 00 FF FF 01 01 01 01 00 01 01 00 00 FF FF 
     175.  04:82A0                          db 0x01,0x00,0xFF,0xFF,0x01,0x00,0x00,0x00,0x00,0x00,0x00,0x01,0x00,0x00,0xFE,0x00,0xFF,0x01,0xFF,0xFE,0x00,0x00,0x02,0x02,0x01,0x00,0x01,0x00,0xFF,0xFF,0xFE,0xFF
     175.  04:82A0  01 00 FF FF 01 00 00 00 00 00 00 01 00 00 FE 00 
     175.  04:82B0  FF 01 FF FE 00 00 02 02 01 00 01 00 FF FF FE FF 
     176.  04:82C0                          db 0x01,0x00,0xFF,0x00,0x02,0x00,0xFE,0xFD,0xFC,0xFC,0xFF,0xFD,0xFA,0xFA,0xFA,0xFA,0xFA,0xFB,0xFB,0x00,0x03,0x05,0x06,0x07,0x07,0x08,0x09,0x09,0x07,0x04,0x04,0x01
     176.  04:82C0  01 00 FF 00 02 00 FE FD FC FC FF FD FA FA FA FA 
     176.  04:82D0  FA FB FB 00 03 05 06 07 07 08 09 09 07 04 04 01 
     177.  04:82E0                          db 0xD8,0xCB,0xD4,0xF9,0x14,0x1B,0x11,0x02,0xFA,0x00,0x15,0x1B,0x1C,0x15,0x00,0xEA,0xD8,0xC4,0xCC,0xF8,0x1A,0x23,0x13,0x00,0xF7,0x02,0x18,0x29,0x24,0x14,0xF9,0xE2
     177.  04:82E0  D8 CB D4 F9 14 1B 11 02 FA 00 15 1B 1C 15 00 EA 
     177.  04:82F0  D8 C4 CC F8 1A 23 13 00 F7 02 18 29 24 14 F9 E2 
     178.  04:8300                          db 0xF7,0xF9,0x01,0x09,0x15,0x22,0x27,0x29,0x27,0x1E,0x14,0x06,0xF3,0xE9,0xE2,0xD5,0xD2,0xCC,0xC4,0xC7,0xE3,0xEB,0x03,0x14,0x1A,0x1F,0x20,0x17,0x12,0x06,0xFF,0xF8
     178.  04:8300  F7 F9 01 09 15 22 27 29 27 1E 14 06 F3 E9 E2 D5 
     178.  04:8310  D2 CC C4 C7 E3 EB 03 14 1A 1F 20 17 12 06 FF F8 
     179.  04:8320                          db 0xF7,0xF4,0xFD,0x03,0x11,0x1D,0x24,0x2A,0x27,0x21,0x17,0x07,0xF8,0xEB,0xDC,0xD5,0xCA,0xC7,0xBF,0xD0,0xE0,0xEE,0x08,0x10,0x20,0x22,0x23,0x1F,0x15,0x0C,0x02,0xF8
     179.  04:8320  F7 F4 FD 03 11 1D 24 2A 27 21 17 07 F8 EB DC D5 
     179.  04:8330  CA C7 BF D0 E0 EE 08 10 20 22 23 1F 15 0C 02 F8 
     180.  04:8340                          db 0xF4,0xF3,0xF5,0xFE,0x0B,0x16,0x23,0x27,0x29,0x23,0x19,0x09,0xFB,0xEA,0xDD,0xCF,0xC6,0xBD,0xBD,0xD0,0xD7,0xF3,0x00,0x14,0x21,0x26,0x2B,0x24,0x1E,0x11,0x05,0xFC
     180.  04:8340  F4 F3 F5 FE 0B 16 23 27 29 23 19 09 FB EA DD CF 
     180.  04:8350  C6 BD BD D0 D7 F3 00 14 21 26 2B 24 1E 11 05 FC 
     181.  04:8360                          db 0xF5,0xF1,0xF2,0xF9,0x04,0x11,0x1D,0x24,0x29,0x25,0x1F,0x0D,0x02,0xED,0xE1,0xCF,0xC6,0xBB,0xBB,0xCB,0xD4,0xF0,0xFD,0x17,0x1F,0x29,0x2E,0x2A,0x24,0x17,0x0B,0xFF
     181.  04:8360  F5 F1 F2 F9 04 11 1D 24 29 25 1F 0D 02 ED E1 CF 
     181.  04:8370  C6 BB BB CB D4 F0 FD 17 1F 29 2E 2A 24 17 0B FF 
     182.  04:8380                          db 0xF6,0xF0,0xF2,0xF9,0x04,0x12,0x1C,0x25,0x27,0x26,0x1E,0x0E,0x02,0xEE,0xE1,0xD0,0xC6,0xBB,0xBB,0xCA,0xD3,0xEF,0xFB,0x16,0x1F,0x2C,0x2E,0x2B,0x24,0x16,0x0C,0xFD
     182.  04:8380  F6 F0 F2 F9 04 12 1C 25 27 26 1E 0E 02 EE E1 D0 
     182.  04:8390  C6 BB BB CA D3 EF FB 16 1F 2C 2E 2B 24 16 0C FD 
     183.  04:83A0                          db 0xF3,0xED,0xF0,0xF8,0x03,0x11,0x1D,0x26,0x29,0x27,0x1F,0x11,0x01,0xF0,0xE0,0xD2,0xC6,0xBF,0xB9,0xCA,0xD2,0xED,0xFC,0x14,0x21,0x2B,0x31,0x2A,0x25,0x14,0x0A,0xFB
     183.  04:83A0  F3 ED F0 F8 03 11 1D 26 29 27 1F 11 01 F0 E0 D2 
     183.  04:83B0  C6 BF B9 CA D2 ED FC 14 21 2B 31 2A 25 14 0A FB 
     184.  04:83C0                          db 0xF4,0xF1,0xF4,0xFD,0x09,0x17,0x21,0x28,0x28,0x23,0x1B,0x0A,0xFD,0xEC,0xE0,0xD3,0xCB,0xC4,0xC0,0xD0,0xD9,0xF2,0xFE,0x15,0x1D,0x28,0x28,0x22,0x1B,0x0C,0x03,0xF6
     184.  04:83C0  F4 F1 F4 FD 09 17 21 28 28 23 1B 0A FD EC E0 D3 
     184.  04:83D0  CB C4 C0 D0 D9 F2 FE 15 1D 28 28 22 1B 0C 03 F6 
     185.  04:83E0                          db 0xF6,0xF6,0xFD,0x05,0x10,0x1A,0x1F,0x20,0x1C,0x16,0x0D,0x02,0xF8,0xF0,0xE8,0xE1,0xDC,0xD7,0xD4,0xDD,0xE3,0xF2,0xFB,0x09,0x10,0x18,0x19,0x17,0x11,0x0A,0x02,0xF9
     185.  04:83E0  F6 F6 FD 05 10 1A 1F 20 1C 16 0D 02 F8 F0 E8 E1 
     185.  04:83F0  DC D7 D4 DD E3 F2 FB 09 10 18 19 17 11 0A 02 F9 
     186.  04:8400                          db 0x02,0x02,0x03,0x03,0x04,0x05,0x05,0x05,0x05,0x04,0x03,0x02,0x00,0xFE,0xFD,0xFB,0xFA,0xFA,0xF7,0xF9,0xFD,0xFF,0x02,0x03,0x03,0x03,0x03,0x03,0x03,0x03,0x02,0x02
     186.  04:8400  02 02 03 03 04 05 05 05 05 04 03 02 00 FE FD FB 
     186.  04:8410  FA FA F7 F9 FD FF 02 03 03 03 03 03 03 03 02 02 
     187.  04:8420                          db 0x01,0x02,0x02,0x04,0x04,0x04,0x03,0x03,0x02,0x01,0x00,0x00,0xFF,0xFE,0xFE,0xFE,0xFD,0xFD,0xFE,0xFE,0xFE,0xFE,0xFE,0xFE,0xFE,0xFE,0xFF,0xFF,0xFF,0x00,0x00,0x01
     187.  04:8420  01 02 02 04 04 04 03 03 02 01 00 00 FF FE FE FE 
     187.  04:8430  FD FD FE FE FE FE FE FE FE FE FF FF FF 00 00 01 
     188.  04:8440                          db 0xFF,0x01,0xFF,0x02,0x07,0x05,0x03,0xFF,0xFF,0xFF,0x00,0xFF,0x00,0xFF,0xFF,0xFF,0xFF,0xFE,0x00,0x03,0x00,0x01,0x00,0x02,0x02,0x02,0xFE,0xFE,0xFF,0xFE,0xFF,0xFF
     188.  04:8440  FF 01 FF 02 07 05 03 FF FF FF 00 FF 00 FF FF FF 
     188.  04:8450  FF FE 00 03 00 01 00 02 02 02 FE FE FF FE FF FF 
     189.  04:8460                          db 0xF7,0xFD,0xFE,0xFF,0x07,0x09,0x00,0x01,0x02,0x01,0x00,0x02,0x01,0x00,0x00,0x02,0x01,0xFE,0x00,0x05,0x02,0x00,0x00,0xFD,0xF9,0xF9,0xF9,0xF6,0xF5,0xF7,0xF6,0xF4
     189.  04:8460  F7 FD FE FF 07 09 00 01 02 01 00 02 01 00 00 02 
     189.  04:8470  01 FE 00 05 02 00 00 FD F9 F9 F9 F6 F5 F7 F6 F4 
     190.  04:8480                          db 0xF9,0x02,0x11,0x1C,0x22,0x29,0x29,0x25,0x1F,0x15,0x0B,0x02,0xF9,0xF4,0xF2,0xEF,0xF2,0xF5,0xF9,0x03,0x04,0x05,0x04,0xFF,0xFA,0xF3,0xEC,0xE3,0xDE,0xE2,0xE6,0xEE
     190.  04:8480  F9 02 11 1C 22 29 29 25 1F 15 0B 02 F9 F4 F2 EF 
     190.  04:8490  F2 F5 F9 03 04 05 04 FF FA F3 EC E3 DE E2 E6 EE 
     191.  04:84A0                          db 0x0E,0x00,0xF8,0xF6,0x07,0x1B,0x29,0x27,0x1B,0x0B,0xFC,0xF2,0xEF,0xF0,0xF1,0xEB,0xDE,0xC8,0xD9,0xEE,0x0F,0x1E,0x24,0x16,0x02,0xEC,0xE6,0xE9,0xFB,0x0A,0x16,0x15
     191.  04:84A0  0E 00 F8 F6 07 1B 29 27 1B 0B FC F2 EF F0 F1 EB 
     191.  04:84B0  DE C8 D9 EE 0F 1E 24 16 02 EC E6 E9 FB 0A 16 15 
     192.  04:84C0                          db 0x01,0xF6,0xF5,0x00,0x18,0x23,0x24,0x15,0x08,0xFD,0xFA,0xF9,0xFB,0xFA,0xF6,0xE8,0xD9,0xC4,0xD7,0xF6,0x17,0x27,0x23,0x0E,0xF5,0xE4,0xE4,0xF3,0x08,0x15,0x17,0x0E
     192.  04:84C0  01 F6 F5 00 18 23 24 15 08 FD FA F9 FB FA F6 E8 
     192.  04:84D0  D9 C4 D7 F6 17 27 23 0E F5 E4 E4 F3 08 15 17 0E 
     193.  04:84E0                          db 0x0F,0x0A,0x03,0x07,0x0C,0x15,0x18,0x17,0x11,0x06,0xFA,0xF2,0xED,0xED,0xEA,0xE2,0xD8,0xCD,0xD5,0xF2,0x0D,0x20,0x1D,0x13,0x00,0xF2,0xEC,0xF2,0xFD,0x0B,0x12,0x15
     193.  04:84E0  0F 0A 03 07 0C 15 18 17 11 06 FA F2 ED ED EA E2 
     193.  04:84F0  D8 CD D5 F2 0D 20 1D 13 00 F2 EC F2 FD 0B 12 15 
     194.  04:8500                          db 0x12,0x0D,0x05,0x06,0x0B,0x13,0x18,0x1B,0x11,0x05,0xF5,0xEE,0xEA,0xEA,0xEA,0xE1,0xD8,0xD0,0xE5,0xFC,0x16,0x20,0x1D,0x0F,0xFD,0xF0,0xEC,0xF2,0xFD,0x0D,0x16,0x1A
     194.  04:8500  12 0D 05 06 0B 13 18 1B 11 05 F5 EE EA EA EA E1 
     194.  04:8510  D8 D0 E5 FC 16 20 1D 0F FD F0 EC F2 FD 0D 16 1A 
     195.  04:8520                          db 0x17,0x10,0x09,0x07,0x08,0x12,0x16,0x16,0x0D,0x02,0xF6,0xED,0xE7,0xE7,0xE1,0xDD,0xD4,0xD9,0xF0,0x04,0x18,0x1B,0x18,0x0A,0xFE,0xF2,0xF1,0xF4,0x00,0x0C,0x17,0x19
     195.  04:8520  17 10 09 07 08 12 16 16 0D 02 F6 ED E7 E7 E1 DD 
     195.  04:8530  D4 D9 F0 04 18 1B 18 0A FE F2 F1 F4 00 0C 17 19 
     196.  04:8540                          db 0x1B,0x15,0x0F,0x09,0x08,0x09,0x0C,0x0B,0x07,0x00,0xF8,0xEF,0xE8,0xE0,0xDC,0xD8,0xD9,0xE8,0xF9,0x0B,0x15,0x18,0x14,0x0A,0x00,0xF6,0xF3,0xF5,0xFF,0x09,0x14,0x1A
     196.  04:8540  1B 15 0F 09 08 09 0C 0B 07 00 F8 EF E8 E0 DC D8 
     196.  04:8550  D9 E8 F9 0B 15 18 14 0A 00 F6 F3 F5 FF 09 14 1A 
     197.  04:8560                          db 0x13,0x10,0x0B,0x08,0x06,0x06,0x05,0x04,0x01,0xFD,0xF8,0xF5,0xF0,0xED,0xEB,0xEB,0xED,0xF3,0xF8,0xFF,0x04,0x07,0x08,0x07,0x05,0x03,0xFA,0xFA,0xFF,0x06,0x0E,0x12
     197.  04:8560  13 10 0B 08 06 06 05 04 01 FD F8 F5 F0 ED EB EB 
     197.  04:8570  ED F3 F8 FF 04 07 08 07 05 03 FA FA FF 06 0E 12 
     198.  04:8580                          db 0x09,0x07,0x05,0x03,0x02,0x00,0xFF,0xFE,0xFE,0xFE,0xFD,0xFD,0xFD,0xFC,0xFC,0xFB,0xFA,0xF9,0xF8,0xF8,0xF8,0xF9,0xFB,0xFD,0xFF,0x02,0x05,0x07,0x09,0x0A,0x0A,0x0A
     198.  04:8580  09 07 05 03 02 00 FF FE FE FE FD FD FD FC FC FB 
     198.  04:8590  FA F9 F8 F8 F8 F9 FB FD FF 02 05 07 09 0A 0A 0A 
     199.  04:85A0                          db 0x03,0x01,0x00,0x00,0xFE,0xFE,0x00,0x00,0x00,0x00,0xFF,0xFF,0xFF,0xFF,0xFF,0xFF,0xFF,0xFF,0xFF,0xFF,0xFF,0xFF,0xFF,0xFF,0xFF,0xFF,0x00,0x00,0x00,0x06,0x04,0x04
     199.  04:85A0  03 01 00 00 FE FE 00 00 00 00 FF FF FF FF FF FF 
     199.  04:85B0  FF FF FF FF FF FF FF FF FF FF 00 00 00 06 04 04 
     200.  04:85C0                          db 0x04,0x01,0xFF,0x00,0xFE,0xFD,0xFE,0xFF,0xFD,0xFF,0x00,0xFF,0x00,0x02,0x01,0x00,0x03,0x01,0x00,0x03,0x02,0x00,0xFF,0xFF,0xFC,0xFD,0xFE,0xFD,0x00,0x07,0x04,0x04
     200.  04:85C0  04 01 FF 00 FE FD FE FF FD FF 00 FF 00 02 01 00 
     200.  04:85D0  03 01 00 03 02 00 FF FF FC FD FE FD 00 07 04 04 
     201.  04:85E0                          db 0x00,0x00,0xFF,0x00,0x00,0x00,0x00,0x00,0x00,0x00,0x00,0x00,0x00,0x00,0x00,0x00,0x00,0x00,0x00,0x00,0x00,0x00,0x00,0x00,0x00,0x00,0x00,0xFF,0x00,0x01,0x00,0x00
     201.  04:85E0  00 00 FF 00 00 00 00 00 00 00 00 00 00 00 00 00 
     201.  04:85F0  00 00 00 00 00 00 00 00 00 00 00 FF 00 01 00 00 
     202.  04:8600                          db 0x00,0x00,0x00,0x00,0x00,0x00,0x00,0x00,0x00,0x00,0x00,0x00,0x00,0x00,0x00,0x00,0x00,0x00,0x00,0x00,0x00,0x00,0x00,0x00,0x00,0x00,0x00,0x00,0x00,0x00,0x00,0x00
     202.  04:8600  00 00 00 00 00 00 00 00 00 00 00 00 00 00 00 00 
     202.  04:8610  00 00 00 00 00 00 00 00 00 00 00 00 00 00 00 00 
     203.  04:8620                          db 0x00,0x00,0x00,0x00,0x00,0x00,0x00,0x00,0x00,0x00,0x00,0x00,0x00,0x00,0x00,0x00,0x00,0x00,0x00,0x00,0x00,0x00,0x00,0x00,0x00,0x00,0x00,0x00,0x00,0x00,0x00,0x00
     203.  04:8620  00 00 00 00 00 00 00 00 00 00 00 00 00 00 00 00 
     203.  04:8630  00 00 00 00 00 00 00 00 00 00 00 00 00 00 00 00 
     204.  04:8640                          db 0x00,0x00,0x00,0x00,0x00,0x00,0x00,0x00,0x00,0x00,0x00,0x00,0x00,0x00,0x00,0x00,0x00,0x00,0x00,0x00,0x00,0x00,0x00,0x00,0x00,0x00,0x00,0x00,0x00,0x00,0x00,0x00
     204.  04:8640  00 00 00 00 00 00 00 00 00 00 00 00 00 00 00 00 
     204.  04:8650  00 00 00 00 00 00 00 00 00 00 00 00 00 00 00 00 
     205.  04:8660                          db 0x00,0x00,0x00,0x00,0x00,0x00,0x00,0x00,0x00,0x00,0x00,0x00,0x00,0x00,0x00,0x00,0x00,0x00,0x00,0x00,0x00,0x00,0x00,0x00,0x00,0x00,0x00,0x00,0x00,0x00,0x00,0x00
     205.  04:8660  00 00 00 00 00 00 00 00 00 00 00 00 00 00 00 00 
     205.  04:8670  00 00 00 00 00 00 00 00 00 00 00 00 00 00 00 00 
     206.  04:8680                          db 0x00,0x00,0x00,0x00,0x00,0x00,0x00,0x00,0x00,0x00,0x00,0x00,0x00,0x00,0x00,0x00,0x00,0x00,0x00,0x00,0x00,0x00,0x00,0x00,0x00,0x00,0x00,0x00,0x00,0x00,0x00,0x00
     206.  04:8680  00 00 00 00 00 00 00 00 00 00 00 00 00 00 00 00 
     206.  04:8690  00 00 00 00 00 00 00 00 00 00 00 00 00 00 00 00 
     207.  04:86A0                          db 0x00,0x00,0x00,0x00,0x00,0x00,0x00,0x00,0x00,0x00,0x00,0x00,0x00,0x00,0x00,0x00,0x00,0x00,0x00,0x00,0x00,0x00,0x00,0x00,0x00,0x00,0x00,0x00,0x00,0x00,0x00,0x00
     207.  04:86A0  00 00 00 00 00 00 00 00 00 00 00 00 00 00 00 00 
     207.  04:86B0  00 00 00 00 00 00 00 00 00 00 00 00 00 00 00 00 
     208.  04:86C0                          db 0x00,0x00,0x00,0x00,0x00,0x00,0x00,0x00,0x00,0x00,0x00,0x00,0x00,0x00,0x00,0x00,0x00,0x00,0x00,0x00,0x00,0x00,0x00,0x00,0x00,0x00,0x00,0x00,0x00,0x00,0x00,0x00
     208.  04:86C0  00 00 00 00 00 00 00 00 00 00 00 00 00 00 00 00 
     208.  04:86D0  00 00 00 00 00 00 00 00 00 00 00 00 00 00 00 00 
     209.  04:86E0                          db 0x00,0x00,0x00,0x00,0x00,0x00,0x00,0x00,0x00,0x00,0x00,0x00,0x00,0x00,0x00,0x00,0x00,0x00,0x00,0x00,0x00,0x00,0x00,0x00,0x00,0x00,0x00,0x00,0x00,0x00,0x00,0x00
     209.  04:86E0  00 00 00 00 00 00 00 00 00 00 00 00 00 00 00 00 
     209.  04:86F0  00 00 00 00 00 00 00 00 00 00 00 00 00 00 00 00 
     210.  04:8700                          db 0x00,0x00,0x00,0x00,0x00,0x00,0x00,0x00,0x00,0x00,0x00,0x00,0x00,0x00,0x00,0x00,0x00,0x00,0x00,0x00,0x00,0x00,0x00,0x00,0x00,0x00,0x00,0x00,0x00,0x00,0x00,0x00
     210.  04:8700  00 00 00 00 00 00 00 00 00 00 00 00 00 00 00 00 
     210.  04:8710  00 00 00 00 00 00 00 00 00 00 00 00 00 00 00 00 
     211.  04:8720                          db 0x00,0x00,0x00,0x00,0x00,0x00,0x00,0x00,0x00,0x00,0x00,0x00,0x00,0x00,0x00,0x00,0x00,0x00,0x00,0x00,0x00,0x00,0x00,0x00,0x00,0x00,0x00,0x00,0x00,0x00,0x00,0x00
     211.  04:8720  00 00 00 00 00 00 00 00 00 00 00 00 00 00 00 00 
     211.  04:8730  00 00 00 00 00 00 00 00 00 00 00 00 00 00 00 00 
     212.  04:8740                          db 0x00,0x00,0x00,0x00,0x00,0x00,0x00,0x00,0x00,0x00,0x00,0x00,0x00,0x00,0x00,0x00,0x00,0x00,0x00,0x00,0x00,0x00,0x00,0x00,0x00,0x00,0x00,0x00,0x00,0x00,0x00,0x00
     212.  04:8740  00 00 00 00 00 00 00 00 00 00 00 00 00 00 00 00 
     212.  04:8750  00 00 00 00 00 00 00 00 00 00 00 00 00 00 00 00 
     213.  04:8760                          db 0x00,0x00,0x00,0x00,0x00,0x00,0x00,0x00,0x00,0x00,0x00,0x00,0x00,0x00,0x00,0x00,0x00,0x00,0x00,0x00,0x00,0x00,0x00,0x00,0x00,0x00,0x00,0x00,0x00,0x00,0x00,0x00
     213.  04:8760  00 00 00 00 00 00 00 00 00 00 00 00 00 00 00 00 
     213.  04:8770  00 00 00 00 00 00 00 00 00 00 00 00 00 00 00 00 
     214.  04:8780                          db 0x00,0x00,0x00,0x00,0x00,0x00,0x00,0x00,0x00,0x00,0x00,0x00,0x00,0x00,0x00,0x00,0x00,0x00,0x00,0x00,0x00,0x00,0x00,0x00,0x00,0x00,0x00,0x00,0x00,0x00,0x00,0x00
     214.  04:8780  00 00 00 00 00 00 00 00 00 00 00 00 00 00 00 00 
     214.  04:8790  00 00 00 00 00 00 00 00 00 00 00 00 00 00 00 00 
     215.  04:87A0                          db 0x00,0x00,0x00,0x00,0x00,0x00,0x00,0x00,0x00,0x00,0x00,0x00,0x00,0x00,0x00,0x00,0x00,0x00,0x00,0x00,0x00,0x00,0x00,0x00,0x00,0x00,0x00,0x00,0x00,0x00,0x00,0x00
     215.  04:87A0  00 00 00 00 00 00 00 00 00 00 00 00 00 00 00 00 
     215.  04:87B0  00 00 00 00 00 00 00 00 00 00 00 00 00 00 00 00 
     216.  04:87C0                          db 0x00,0x00,0x00,0x00,0x00,0x00,0x00,0x00,0x00,0x00,0x00,0x00,0x00,0x00,0x00,0x00,0x00,0x00,0x00,0x00,0x00,0x00,0x00,0x00,0x00,0x00,0x00,0x00,0x00,0x00,0x00,0x00
     216.  04:87C0  00 00 00 00 00 00 00 00 00 00 00 00 00 00 00 00 
     216.  04:87D0  00 00 00 00 00 00 00 00 00 00 00 00 00 00 00 00 
     217.  04:87E0                          db 0x00,0x00,0x00,0x00,0x00,0x00,0x00,0x00,0x00,0x00,0x00,0x00,0x00,0x00,0x00,0x00,0x00,0x00,0x00,0x00,0x00,0x00,0x00,0x00,0x00,0x00,0x00,0x00,0x00,0x00,0x00,0x00
     217.  04:87E0  00 00 00 00 00 00 00 00 00 00 00 00 00 00 00 00 
     217.  04:87F0  00 00 00 00 00 00 00 00 00 00 00 00 00 00 00 00 
     218.  04:8800                          db 0x00,0x00,0x00,0x00,0x00,0x00,0x00,0x00,0x00,0x00,0x00,0x00,0x00,0x00,0x00,0x00,0x00,0x00,0x00,0x00,0x00,0x00,0x00,0x00,0x00,0x00,0x00,0x00,0x00,0x00,0x00,0x00
     218.  04:8800  00 00 00 00 00 00 00 00 00 00 00 00 00 00 00 00 
     218.  04:8810  00 00 00 00 00 00 00 00 00 00 00 00 00 00 00 00 
     219.  04:8820                          db 0x00,0x00,0x00,0x00,0x00,0x00,0x00,0x00,0x00,0x00,0x00,0x00,0x00,0x00,0x00,0x00,0x00,0x00,0x00,0x00,0x00,0x00,0x00,0x00,0x00,0x00,0x00,0x00,0x00,0x00,0x00,0x00
     219.  04:8820  00 00 00 00 00 00 00 00 00 00 00 00 00 00 00 00 
     219.  04:8830  00 00 00 00 00 00 00 00 00 00 00 00 00 00 00 00 
     220.  04:8840                          db 0x00,0x00,0x00,0x00,0x00,0x00,0x00,0x00,0x00,0x00,0x00,0x00,0x00,0x00,0x00,0x00,0x00,0x00,0x00,0x00,0x00,0x00,0x00,0x00,0x00,0x00,0x00,0x00,0x00,0x00,0x00,0x00
     220.  04:8840  00 00 00 00 00 00 00 00 00 00 00 00 00 00 00 00 
     220.  04:8850  00 00 00 00 00 00 00 00 00 00 00 00 00 00 00 00 
     221.  04:8860                          db 0x00,0x00,0x00,0x00,0x00,0x00,0x00,0x00,0x00,0x00,0x00,0x00,0x00,0x00,0x00,0x00,0x00,0x00,0x00,0x00,0x00,0x00,0x00,0x00,0x00,0x00,0x00,0x00,0x00,0x00,0x00,0x00
     221.  04:8860  00 00 00 00 00 00 00 00 00 00 00 00 00 00 00 00 
     221.  04:8870  00 00 00 00 00 00 00 00 00 00 00 00 00 00 00 00 
     222.  04:8880                          db 0x00,0x00,0x00,0x00,0x00,0x00,0x00,0x00,0x00,0x00,0x00,0x00,0x00,0x00,0x00,0x00,0x00,0x00,0x00,0x00,0x00,0x00,0x00,0x00,0x00,0x00,0x00,0x00,0x00,0x00,0x00,0x00
     222.  04:8880  00 00 00 00 00 00 00 00 00 00 00 00 00 00 00 00 
     222.  04:8890  00 00 00 00 00 00 00 00 00 00 00 00 00 00 00 00 
     223.  04:88A0                          db 0x00,0x00,0x00,0x00,0x00,0x00,0x00,0x00,0x00,0x00,0x00,0x00,0x00,0x00,0x00,0x00,0x00,0x00,0x00,0x00,0x00,0x00,0x00,0x00,0x00,0x00,0x00,0x00,0x00,0x00,0x00,0x00
     223.  04:88A0  00 00 00 00 00 00 00 00 00 00 00 00 00 00 00 00 
     223.  04:88B0  00 00 00 00 00 00 00 00 00 00 00 00 00 00 00 00 
     224.  04:88C0                          db 0xFF,0xFF,0xFF,0x00,0xFF,0x00,0x02,0x01,0xFF,0xFF,0x00,0x01,0x01,0x01,0x00,0xFF,0xFF,0x00,0x01,0xFF,0x00,0x00,0x00,0x00,0x00,0x00,0x02,0x02,0x00,0xFE,0x01,0x05
     224.  04:88C0  FF FF FF 00 FF 00 02 01 FF FF 00 01 01 01 00 FF 
     224.  04:88D0  FF 00 01 FF 00 00 00 00 00 00 02 02 00 FE 01 05 
     225.  04:88E0                          db 0x0A,0xC0,0xC6,0xEE,0x15,0x30,0x2E,0x00,0xD5,0xF1,0x21,0x2C,0x1D,0x19,0x0D,0x04,0x16,0x1A,0x0E,0x02,0x05,0x14,0x16,0xFE,0xE2,0xDB,0xE4,0xDB,0xC9,0xC7,0x09,0x43
     225.  04:88E0  0A C0 C6 EE 15 30 2E 00 D5 F1 21 2C 1D 19 0D 04 
     225.  04:88F0  16 1A 0E 02 05 14 16 FE E2 DB E4 DB C9 C7 09 43 
     226.  04:8900                          db 0x57,0xBD,0xA7,0xDD,0xF2,0x2E,0x63,0x35,0xDC,0xD4,0xF9,0x16,0x39,0x44,0x16,0xF9,0x13,0x2A,0x1B,0x08,0x04,0x01,0x05,0x0B,0xF6,0xD9,0xC1,0xAE,0xB2,0xA4,0xE5,0x7F
     226.  04:8900  57 BD A7 DD F2 2E 63 35 DC D4 F9 16 39 44 16 F9 
     226.  04:8910  13 2A 1B 08 04 01 05 0B F6 D9 C1 AE B2 A4 E5 7F 
     227.  04:8920                          db 0x45,0xDC,0xD6,0xC0,0xC4,0x35,0x69,0x3A,0x10,0xEF,0xCF,0xF5,0x3D,0x4C,0x36,0x24,0x04,0xF8,0x1F,0x27,0x08,0xFD,0x00,0xF5,0xF0,0xDB,0xAE,0xA7,0xB3,0x91,0xE9,0x7C
     227.  04:8920  45 DC D6 C0 C4 35 69 3A 10 EF CF F5 3D 4C 36 24 
     227.  04:8930  04 F8 1F 27 08 FD 00 F5 F0 DB AE A7 B3 91 E9 7C 
     228.  04:8940                          db 0x24,0x07,0xC8,0xAF,0xFB,0x29,0x44,0x50,0x1C,0xE3,0xE4,0xF9,0x24,0x51,0x4E,0x29,0x0E,0xFF,0x02,0x18,0x1D,0x09,0xEF,0xE2,0xCB,0xB7,0xB7,0xB0,0x95,0xC0,0x40,0x49
     228.  04:8940  24 07 C8 AF FB 29 44 50 1C E3 E4 F9 24 51 4E 29 
     228.  04:8950  0E FF 02 18 1D 09 EF E2 CB B7 B7 B0 95 C0 40 49 
     229.  04:8960                          db 0x32,0x14,0xC9,0xBF,0xF2,0x07,0x3D,0x51,0x27,0x07,0xF5,0xEC,0x12,0x38,0x41,0x3F,0x2B,0x0B,0x04,0x04,0x0A,0x03,0xF9,0xDB,0xBF,0xB6,0xA9,0xA6,0x9B,0xE1,0x42,0x3B
     229.  04:8960  32 14 C9 BF F2 07 3D 51 27 07 F5 EC 12 38 41 3F 
     229.  04:8970  2B 0B 04 04 0A 03 F9 DB BF B6 A9 A6 9B E1 42 3B 
     230.  04:8980                          db 0x3A,0x34,0xF8,0xDC,0xE7,0xE0,0x0C,0x2E,0x25,0x2D,0x1D,0x04,0x12,0x18,0x1B,0x30,0x31,0x28,0x27,0x14,0x01,0xF6,0xE5,0xD9,0xC5,0xBB,0xAC,0xA9,0x9D,0xCD,0x25,0x2C
     230.  04:8980  3A 34 F8 DC E7 E0 0C 2E 25 2D 1D 04 12 18 1B 30 
     230.  04:8990  31 28 27 14 01 F6 E5 D9 C5 BB AC A9 9D CD 25 2C 
     231.  04:89A0                          db 0x3C,0x3C,0x0E,0xF8,0xEF,0xDD,0xF6,0x0A,0x10,0x26,0x28,0x21,0x27,0x23,0x1D,0x22,0x1F,0x1E,0x1F,0x16,0x0B,0x02,0xEF,0xD8,0xC5,0xB8,0xA9,0xA6,0xA1,0xD0,0x14,0x27
     231.  04:89A0  3C 3C 0E F8 EF DD F6 0A 10 26 28 21 27 23 1D 22 
     231.  04:89B0  1F 1E 1F 16 0B 02 EF D8 C5 B8 A9 A6 A1 D0 14 27 
     232.  04:89C0                          db 0x1F,0x17,0x14,0x11,0x06,0x03,0x02,0xFE,0x02,0x08,0x0C,0x13,0x16,0x14,0x13,0x0F,0x0A,0x08,0x05,0x00,0xFA,0xF5,0xEF,0xEB,0xE7,0xCD,0xC9,0xCA,0xE0,0xF9,0x05,0x15
     232.  04:89C0  1F 17 14 11 06 03 02 FE 02 08 0C 13 16 14 13 0F 
     232.  04:89D0  0A 08 05 00 FA F5 EF EB E7 CD C9 CA E0 F9 05 15 
     233.  04:89E0                          db 0x04,0x06,0x08,0x07,0x07,0x06,0x05,0x05,0x03,0x03,0x03,0x04,0x04,0x05,0x03,0x03,0x02,0x02,0x00,0xFE,0xFD,0xFB,0xF9,0xF8,0xF3,0xF2,0xF2,0xF4,0xF8,0xFB,0xFE,0x02
     233.  04:89E0  04 06 08 07 07 06 05 05 03 03 03 04 04 05 03 03 
     233.  04:89F0  02 02 00 FE FD FB F9 F8 F3 F2 F2 F4 F8 FB FE 02 
     234.  04:8A00                          db 0x03,0x04,0x05,0x06,0x06,0x05,0x05,0x05,0x04,0x04,0x03,0x02,0x02,0x02,0x01,0x00,0xFF,0x00,0xFE,0xFD,0xFD,0xFC,0xFA,0xFB,0xF9,0xF9,0xFA,0xFB,0xFC,0xFE,0xFF,0x02
     234.  04:8A00  03 04 05 06 06 05 05 05 04 04 03 02 02 02 01 00 
     234.  04:8A10  FF 00 FE FD FD FC FA FB F9 F9 FA FB FC FE FF 02 
     235.  04:8A20                          db 0x06,0x09,0x0A,0x0A,0x06,0x06,0x06,0x04,0x04,0x04,0x04,0x03,0x04,0x05,0x04,0x03,0x02,0x02,0x00,0xFE,0xFC,0xFA,0xF7,0xF5,0xF2,0xF0,0xF1,0xF3,0xF7,0xFB,0xFF,0x03
     235.  04:8A20  06 09 0A 0A 06 06 06 04 04 04 04 03 04 05 04 03 
     235.  04:8A30  02 02 00 FE FC FA F7 F5 F2 F0 F1 F3 F7 FB FF 03 
     236.  04:8A40                          db 0x10,0x11,0x11,0x10,0x0C,0x07,0x04,0x01,0xFF,0x00,0x02,0x05,0x0A,0x0D,0x0E,0x0E,0x0C,0x09,0x05,0x00,0xFA,0xF5,0xF0,0xEB,0xE6,0xE1,0xDE,0xE6,0xF1,0xF5,0xFE,0x09
     236.  04:8A40  10 11 11 10 0C 07 04 01 FF 00 02 05 0A 0D 0E 0E 
     236.  04:8A50  0C 09 05 00 FA F5 F0 EB E6 E1 DE E6 F1 F5 FE 09 
     237.  04:8A60                          db 0x11,0x1F,0x1E,0x1C,0x17,0x0E,0x09,0xFF,0xF8,0xF6,0xF7,0x01,0x08,0x10,0x19,0x1A,0x19,0x16,0x0F,0x05,0xFB,0xF3,0xE9,0xE0,0xDA,0xD4,0xCD,0xDB,0xEB,0xEA,0x03,0x0D
     237.  04:8A60  11 1F 1E 1C 17 0E 09 FF F8 F6 F7 01 08 10 19 1A 
     237.  04:8A70  19 16 0F 05 FB F3 E9 E0 DA D4 CD DB EB EA 03 0D 
     238.  04:8A80                          db 0x0E,0x1D,0x19,0x26,0x19,0x16,0x0F,0x02,0xFE,0xF6,0xF7,0xFC,0x02,0x0B,0x12,0x17,0x19,0x17,0x13,0x0A,0x02,0xF7,0xED,0xE4,0xDD,0xD6,0xCF,0xD5,0xE2,0xE1,0xFE,0xFF
     238.  04:8A80  0E 1D 19 26 19 16 0F 02 FE F6 F7 FC 02 0B 12 17 
     238.  04:8A90  19 17 13 0A 02 F7 ED E4 DD D6 CF D5 E2 E1 FE FF 
     239.  04:8AA0                          db 0x13,0x17,0x22,0x1E,0x1D,0x1A,0x0E,0x0A,0xFD,0xFC,0xF9,0xFE,0x02,0x09,0x0F,0x13,0x15,0x13,0x10,0x08,0xFF,0xF6,0xEB,0xE4,0xDB,0xD4,0xD1,0xDC,0xDE,0xEE,0xF9,0x03
     239.  04:8AA0  13 17 22 1E 1D 1A 0E 0A FD FC F9 FE 02 09 0F 13 
     239.  04:8AB0  15 13 10 08 FF F6 EB E4 DB D4 D1 DC DE EE F9 03 
     240.  04:8AC0                          db 0x0D,0x17,0x1D,0x1C,0x21,0x19,0x16,0x0D,0x05,0x01,0xFD,0xFE,0x00,0x04,0x09,0x0D,0x0F,0x10,0x0C,0x08,0xFF,0xF8,0xEF,0xE7,0xDE,0xD8,0xD9,0xDD,0xE2,0xEF,0xF6,0x04
     240.  04:8AC0  0D 17 1D 1C 21 19 16 0D 05 01 FD FE 00 04 09 0D 
     240.  04:8AD0  0F 10 0C 08 FF F8 EF E7 DE D8 D9 DD E2 EF F6 04 
     241.  04:8AE0                          db 0x03,0x07,0x0A,0x0C,0x0D,0x0C,0x12,0x0D,0x09,0x05,0x04,0x02,0x03,0x04,0x05,0x06,0x06,0x06,0x03,0x01,0xFD,0xF9,0xF6,0xF1,0xED,0xEB,0xEC,0xED,0xF0,0xF5,0xF8,0xFE
     241.  04:8AE0  03 07 0A 0C 0D 0C 12 0D 09 05 04 02 03 04 05 06 
     241.  04:8AF0  06 06 03 01 FD F9 F6 F1 ED EB EC ED F0 F5 F8 FE 
     242.  04:8B00                          db 0x00,0x01,0x00,0x01,0x01,0x01,0x01,0x02,0x02,0x02,0x02,0x02,0x02,0x02,0x01,0x01,0x01,0x00,0x00,0xFF,0xFF,0xFF,0xFF,0xFF,0xFF,0xFF,0xFF,0xFF,0xFF,0x00,0x00,0x00
     242.  04:8B00  00 01 00 01 01 01 01 02 02 02 02 02 02 02 01 01 
     242.  04:8B10  01 00 00 FF FF FF FF FF FF FF FF FF FF 00 00 00 
     243.  04:8B20                          db 0x00,0x00,0x00,0x00,0x00,0x00,0x00,0x00,0x00,0x00,0x01,0x00,0x00,0x00,0x00,0x00,0x00,0x00,0x00,0x00,0x00,0x00,0x00,0x00,0x00,0x00,0x00,0x00,0x00,0x00,0x00,0x00
     243.  04:8B20  00 00 00 00 00 00 00 00 00 00 01 00 00 00 00 00 
     243.  04:8B30  00 00 00 00 00 00 00 00 00 00 00 00 00 00 00 00 
     244.  04:8B40                          db 0x00,0x00,0x00,0x00,0x00,0x00,0x00,0x00,0x00,0x00,0x00,0x00,0x00,0x00,0x00,0x00,0x00,0x00,0x00,0x00,0x00,0x00,0x00,0x00,0x00,0x00,0x00,0x00,0x00,0x00,0x00,0x00
     244.  04:8B40  00 00 00 00 00 00 00 00 00 00 00 00 00 00 00 00 
     244.  04:8B50  00 00 00 00 00 00 00 00 00 00 00 00 00 00 00 00 
     245.  04:8B60                          db 0x00,0x00,0x00,0x00,0x00,0x00,0x00,0x00,0x00,0x00,0x00,0x00,0x00,0x00,0x00,0x00,0x00,0x00,0x00,0x00,0x00,0x00,0x00,0x00,0x00,0x00,0x00,0x00,0x00,0x00,0x00,0x00
     245.  04:8B60  00 00 00 00 00 00 00 00 00 00 00 00 00 00 00 00 
     245.  04:8B70  00 00 00 00 00 00 00 00 00 00 00 00 00 00 00 00 
     246.  04:8B80                          db 0x02,0x00,0xFC,0x00,0x01,0xFE,0x00,0x02,0xFE,0x00,0x02,0xFF,0x00,0x02,0x00,0xFE,0x00,0x00,0xFD,0x03,0x00,0xFC,0x01,0x03,0xFF,0x00,0x00,0xFD,0x00,0x02,0xFD,0xFB
     246.  04:8B80  02 00 FC 00 01 FE 00 02 FE 00 02 FF 00 02 00 FE 
     246.  04:8B90  00 00 FD 03 00 FC 01 03 FF 00 00 FD 00 02 FD FB 
     247.  04:8BA0                          db 0x00,0x00,0x00,0x00,0xFF,0xFF,0xFF,0xFF,0x01,0x01,0x00,0x00,0x00,0x00,0x00,0x00,0x01,0x01,0x02,0x01,0x01,0x00,0x00,0x01,0x01,0x00,0x00,0xFF,0xFF,0xFF,0xFF,0xFF
     247.  04:8BA0  00 00 00 00 FF FF FF FF 01 01 00 00 00 00 00 00 
     247.  04:8BB0  01 01 02 01 01 00 00 01 01 00 00 FF FF FF FF FF 
     248.  04:8BC0                          db 0x00,0x00,0x00,0x00,0x01,0x00,0x00,0x00,0xFF,0xFF,0xFF,0xFF,0xFF,0x00,0x00,0x01,0x01,0x01,0x01,0x00,0x01,0x00,0x01,0x01,0x00,0x00,0xFF,0x00,0xFF,0x00,0xFF,0x00
     248.  04:8BC0  00 00 00 00 01 00 00 00 FF FF FF FF FF 00 00 01 
     248.  04:8BD0  01 01 01 00 01 00 01 01 00 00 FF 00 FF 00 FF 00 
     249.  04:8BE0                          db 0x01,0xFF,0x00,0x00,0xFF,0x00,0xFE,0x00,0xFE,0xFE,0xFF,0xFD,0xFE,0xFF,0x00,0x00,0x00,0x00,0x01,0x00,0x02,0x00,0x02,0x01,0x01,0x01,0x01,0x01,0x01,0x01,0x00,0x00
     249.  04:8BE0  01 FF 00 00 FF 00 FE 00 FE FE FF FD FE FF 00 00 
     249.  04:8BF0  00 00 01 00 02 00 02 01 01 01 01 01 01 01 00 00 
     250.  04:8C00                          db 0xFD,0xFA,0xF8,0xF4,0xF2,0xED,0xEB,0xE7,0xE3,0xE1,0xE2,0xE1,0xE8,0xEB,0xF3,0xFA,0x02,0x0C,0x13,0x1B,0x1F,0x24,0x24,0x24,0x20,0x1C,0x17,0x10,0x0D,0x07,0x04,0x00
     250.  04:8C00  FD FA F8 F4 F2 ED EB E7 E3 E1 E2 E1 E8 EB F3 FA 
     250.  04:8C10  02 0C 13 1B 1F 24 24 24 20 1C 17 10 0D 07 04 00 
     251.  04:8C20                          db 0x05,0x03,0x03,0xFE,0xF9,0xF2,0xE9,0xE1,0xD6,0xD2,0xCD,0xCF,0xD4,0xDA,0xE9,0xF2,0x03,0x0F,0x1C,0x29,0x2E,0x2E,0x2C,0x27,0x1F,0x17,0x0E,0x09,0x04,0x03,0x03,0x03
     251.  04:8C20  05 03 03 FE F9 F2 E9 E1 D6 D2 CD CF D4 DA E9 F2 
     251.  04:8C30  03 0F 1C 29 2E 2E 2C 27 1F 17 0E 09 04 03 03 03 
     252.  04:8C40                          db 0x09,0x0B,0x0D,0x06,0xFD,0xF7,0xEA,0xE4,0xD4,0xD0,0xCA,0xC9,0xD1,0xD6,0xE7,0xF1,0x03,0x10,0x1D,0x26,0x2B,0x2D,0x29,0x25,0x1C,0x17,0x0C,0x08,0x02,0x02,0x02,0x05
     252.  04:8C40  09 0B 0D 06 FD F7 EA E4 D4 D0 CA C9 D1 D6 E7 F1 
     252.  04:8C50  03 10 1D 26 2B 2D 29 25 1C 17 0C 08 02 02 02 05 
     253.  04:8C60                          db 0x11,0x14,0x12,0x0E,0x06,0xFD,0xF2,0xE7,0xDC,0xD1,0xC8,0xC7,0xCB,0xD9,0xE4,0xF9,0x06,0x19,0x23,0x2C,0x2D,0x2D,0x25,0x1F,0x12,0x0A,0x00,0xFF,0xFB,0x02,0x05,0x0D
     253.  04:8C60  11 14 12 0E 06 FD F2 E7 DC D1 C8 C7 CB D9 E4 F9 
     253.  04:8C70  06 19 23 2C 2D 2D 25 1F 12 0A 00 FF FB 02 05 0D 
     254.  04:8C80                          db 0x12,0x13,0x12,0x0D,0x05,0xFC,0xF2,0xE8,0xDF,0xD6,0xD2,0xD2,0xD8,0xE2,0xF0,0xFF,0x0E,0x19,0x21,0x24,0x1F,0x21,0x1D,0x17,0x0F,0x07,0x02,0x00,0x01,0x04,0x09,0x0E
     254.  04:8C80  12 13 12 0D 05 FC F2 E8 DF D6 D2 D2 D8 E2 F0 FF 
     254.  04:8C90  0E 19 21 24 1F 21 1D 17 0F 07 02 00 01 04 09 0E 
     255.  04:8CA0                          db 0x14,0x14,0x12,0x0D,0x06,0xFE,0xF6,0xEE,0xE7,0xE0,0xD8,0xD5,0xD8,0xE0,0xEB,0xF8,0xFC,0x0A,0x15,0x1E,0x21,0x1F,0x1A,0x11,0x07,0xFE,0xFA,0xFB,0xFF,0x06,0x0C,0x11
     255.  04:8CA0  14 14 12 0D 06 FE F6 EE E7 E0 D8 D5 D8 E0 EB F8 
     255.  04:8CB0  FC 0A 15 1E 21 1F 1A 11 07 FE FA FB FF 06 0C 11 
     256.  04:8CC0                          db 0x13,0x13,0x11,0x0E,0x08,0x01,0xF9,0xF1,0xEA,0xE3,0xDC,0xD8,0xDA,0xE1,0xEC,0xF9,0x06,0x12,0x1B,0x1F,0x1E,0x19,0x10,0x06,0xFD,0xF7,0xF6,0xFA,0xFF,0x06,0x0C,0x10
     256.  04:8CC0  13 13 11 0E 08 01 F9 F1 EA E3 DC D8 DA E1 EC F9 
     256.  04:8CD0  06 12 1B 1F 1E 19 10 06 FD F7 F6 FA FF 06 0C 10 
     257.  04:8CE0                          db 0x13,0x13,0x11,0x0C,0x07,0x01,0xFA,0xF4,0xED,0xE7,0xE2,0xE0,0xE2,0xE7,0xEF,0xFA,0x04,0x0E,0x15,0x18,0x17,0x13,0x0B,0x03,0xFC,0xF5,0xF6,0xFB,0x01,0x07,0x0D,0x11
     257.  04:8CE0  13 13 11 0C 07 01 FA F4 ED E7 E2 E0 E2 E7 EF FA 
     257.  04:8CF0  04 0E 15 18 17 13 0B 03 FC F5 F6 FB 01 07 0D 11 
     258.  04:8D00                          db 0x0B,0x0B,0x0A,0x08,0x05,0x03,0x00,0xFD,0xEF,0xEB,0xE8,0xE7,0xE8,0xED,0xF5,0xFE,0x07,0x0E,0x13,0x15,0x12,0x0D,0x07,0x00,0xFB,0xF8,0xF9,0xFB,0xFF,0x03,0x07,0x0A
     258.  04:8D00  0B 0B 0A 08 05 03 00 FD EF EB E8 E7 E8 ED F5 FE 
     258.  04:8D10  07 0E 13 15 12 0D 07 00 FB F8 F9 FB FF 03 07 0A 
     259.  04:8D20                          db 0xFF,0x00,0x00,0x01,0x01,0x00,0xFE,0xFB,0xF8,0xF6,0xF5,0xF6,0xF7,0xF9,0xFD,0x01,0x05,0x08,0x09,0x0A,0x09,0x08,0x06,0x04,0x02,0x0B,0x08,0x06,0x04,0x01,0x00,0xFF
     259.  04:8D20  FF 00 00 01 01 00 FE FB F8 F6 F5 F6 F7 F9 FD 01 
     259.  04:8D30  05 08 09 0A 09 08 06 04 02 0B 08 06 04 01 00 FF 
     260.  04:8D40                          db 0x01,0x00,0x00,0x00,0xFF,0xFF,0xFF,0xFF,0xFF,0xFF,0xFF,0xFF,0xFF,0xFF,0xFF,0x00,0x00,0x00,0x01,0x01,0x01,0x00,0x01,0x01,0x01,0x01,0x01,0x01,0x01,0x01,0x01,0x01
     260.  04:8D40  01 00 00 00 FF FF FF FF FF FF FF FF FF FF FF 00 
     260.  04:8D50  00 00 01 01 01 00 01 01 01 01 01 01 01 01 01 01 
     261.  04:8D60                          db 0x01,0x00,0xFF,0xFE,0xFE,0xFD,0xFD,0xFD,0xFD,0xFD,0xFD,0xFD,0xFD,0xFD,0xFE,0xFE,0xFF,0x00,0x00,0x02,0x02,0x03,0x04,0x05,0x05,0x05,0x05,0x05,0x04,0x03,0x03,0x02
     261.  04:8D60  01 00 FF FE FE FD FD FD FD FD FD FD FD FD FE FE 
     261.  04:8D70  FF 00 00 02 02 03 04 05 05 05 05 05 04 03 03 02 
     262.  04:8D80                          db 0x01,0x00,0x00,0x00,0xFF,0xFF,0xFF,0xFF,0xFE,0xFE,0xFE,0xFE,0xFE,0xFE,0xFF,0xFF,0xFF,0x00,0x00,0x00,0x01,0x01,0x01,0x02,0x02,0x01,0x01,0x01,0x01,0x01,0x01,0x01
     262.  04:8D80  01 00 00 00 FF FF FF FF FE FE FE FE FE FE FF FF 
     262.  04:8D90  FF 00 00 00 01 01 01 02 02 01 01 01 01 01 01 01 
     263.  04:8DA0                          db 0x00,0x00,0x00,0x00,0x00,0x00,0x00,0x00,0x00,0x00,0x00,0x00,0x00,0x00,0x00,0x00,0x00,0x00,0x00,0x00,0x00,0x00,0x00,0x00,0x00,0x00,0x00,0x00,0x00,0x00,0x00,0x00
     263.  04:8DA0  00 00 00 00 00 00 00 00 00 00 00 00 00 00 00 00 
     263.  04:8DB0  00 00 00 00 00 00 00 00 00 00 00 00 00 00 00 00 
     264.  04:8DC0                          db 0x00,0x00,0x00,0x00,0x00,0x00,0x00,0x00,0x00,0x00,0x00,0x00,0x00,0x00,0x00,0x00,0x00,0x00,0x00,0x00,0x00,0x00,0x00,0x00,0x00,0x00,0x00,0x00,0x00,0x00,0x00,0x00
     264.  04:8DC0  00 00 00 00 00 00 00 00 00 00 00 00 00 00 00 00 
     264.  04:8DD0  00 00 00 00 00 00 00 00 00 00 00 00 00 00 00 00 
     265.  04:8DE0                          db 0x00,0x00,0x00,0x00,0x00,0x00,0x00,0x00,0x00,0x00,0x00,0x00,0x00,0x00,0x00,0x00,0x00,0x00,0x00,0x00,0x00,0x00,0x00,0x00,0x00,0x00,0x00,0x00,0x00,0x00,0x00,0x00
     265.  04:8DE0  00 00 00 00 00 00 00 00 00 00 00 00 00 00 00 00 
     265.  04:8DF0  00 00 00 00 00 00 00 00 00 00 00 00 00 00 00 00 
     266.  04:8E00                          db 0x00,0x00,0x00,0x00,0x00,0x00,0x00,0x00,0x00,0x00,0x00,0x00,0x00,0x00,0x00,0x00,0x00,0x00,0x00,0x00,0x00,0x00,0x00,0x00,0x00,0x00,0x00,0x00,0x00,0x00,0x00,0x00
     266.  04:8E00  00 00 00 00 00 00 00 00 00 00 00 00 00 00 00 00 
     266.  04:8E10  00 00 00 00 00 00 00 00 00 00 00 00 00 00 00 00 
     267.  04:8E20                          db 0x00,0x00,0xFF,0x00,0x01,0x01,0x00,0xFF,0x02,0x03,0x02,0xFF,0xFF,0xFF,0xFF,0x00,0x00,0x00,0x00,0x00,0x00,0x00,0x00,0x00,0x00,0x00,0xFF,0xFF,0xFF,0xFF,0x00,0xFF
     267.  04:8E20  00 00 FF 00 01 01 00 FF 02 03 02 FF FF FF FF 00 
     267.  04:8E30  00 00 00 00 00 00 00 00 00 00 FF FF FF FF 00 FF 
     268.  04:8E40                          db 0x00,0x00,0x00,0xFF,0x00,0x01,0xFF,0x00,0xFF,0x02,0x00,0xFF,0x01,0x00,0x00,0xFF,0x00,0x01,0x00,0xFF,0x00,0x00,0x01,0xFF,0x00,0x00,0x00,0xFF,0x00,0xFF,0x00,0xFF
     268.  04:8E40  00 00 00 FF 00 01 FF 00 FF 02 00 FF 01 00 00 FF 
     268.  04:8E50  00 01 00 FF 00 00 01 FF 00 00 00 FF 00 FF 00 FF 
     269.  04:8E60                          db 0x00,0x01,0x00,0xFF,0x01,0x00,0xFF,0x00,0x00,0x01,0xFF,0xFF,0x01,0x02,0xFE,0x01,0x00,0x01,0x00,0xFF,0x01,0x01,0xFF,0x00,0x00,0x00,0x00,0xFF,0x00,0x00,0x00,0x00
     269.  04:8E60  00 01 00 FF 01 00 FF 00 00 01 FF FF 01 02 FE 01 
     269.  04:8E70  00 01 00 FF 01 01 FF 00 00 00 00 FF 00 00 00 00 
     270.  04:8E80                          db 0x01,0x02,0xFF,0xFF,0x01,0x01,0xFF,0xFF,0x00,0x02,0xFE,0xFD,0x01,0x01,0x00,0x00,0x01,0x02,0x00,0xFE,0x02,0x00,0xFF,0x00,0x00,0x00,0xFF,0xFF,0x01,0x01,0x00,0xFF
     270.  04:8E80  01 02 FF FF 01 01 FF FF 00 02 FE FD 01 01 00 00 
     270.  04:8E90  01 02 00 FE 02 00 FF 00 00 00 FF FF 01 01 00 FF 
     271.  04:8EA0                          db 0x00,0x00,0x00,0x00,0x00,0x01,0x00,0x00,0x00,0x00,0x01,0xFF,0x00,0x01,0xFF,0x00,0x00,0x00,0x00,0x00,0x02,0x00,0x00,0x00,0xFF,0x00,0xFF,0x00,0x00,0x00,0x01,0xFF
     271.  04:8EA0  00 00 00 00 00 01 00 00 00 00 01 FF 00 01 FF 00 
     271.  04:8EB0  00 00 00 00 02 00 00 00 FF 00 FF 00 00 00 01 FF 
     272.  04:8EC0                          db 0x00,0x00,0x01,0x01,0x00,0x01,0x00,0x00,0x00,0x00,0x00,0xFF,0x00,0x00,0x00,0x00,0x00,0x00,0x00,0x00,0x01,0x00,0x00,0x00,0x00,0xFF,0xFF,0x00,0x00,0xFF,0x00,0x00
     272.  04:8EC0  00 00 01 01 00 01 00 00 00 00 00 FF 00 00 00 00 
     272.  04:8ED0  00 00 00 00 01 00 00 00 00 FF FF 00 00 FF 00 00 
     273.  04:8EE0                          db 0x00,0x00,0x00,0x00,0x00,0x00,0x00,0x00,0x00,0x00,0x00,0x00,0x00,0x00,0x00,0x00,0x00,0x00,0x00,0x00,0x00,0x00,0x00,0x00,0x00,0x00,0x00,0x00,0x00,0x00,0x00,0x00
     273.  04:8EE0  00 00 00 00 00 00 00 00 00 00 00 00 00 00 00 00 
     273.  04:8EF0  00 00 00 00 00 00 00 00 00 00 00 00 00 00 00 00 
     274.  04:8F00                          db 0x00,0x00,0x00,0x00,0x00,0x00,0x00,0x00,0x00,0x00,0x00,0x00,0x00,0x00,0x00,0x00,0x00,0x00,0x00,0x00,0x00,0x00,0x00,0x00,0x00,0x00,0x00,0x00,0x00,0x00,0x00,0x00
     274.  04:8F00  00 00 00 00 00 00 00 00 00 00 00 00 00 00 00 00 
     274.  04:8F10  00 00 00 00 00 00 00 00 00 00 00 00 00 00 00 00 
     275.  04:8F20                          db 0x00,0x00,0x00,0x00,0x00,0x00,0x00,0x00,0x00,0x00,0x00,0x00,0x00,0x00,0x00,0x00,0x00,0x00,0x00,0x00,0x00,0x00,0x00,0x00,0x00,0x00,0x00,0x00,0x00,0x00,0x00,0x00
     275.  04:8F20  00 00 00 00 00 00 00 00 00 00 00 00 00 00 00 00 
     275.  04:8F30  00 00 00 00 00 00 00 00 00 00 00 00 00 00 00 00 
     276.  04:8F40                          db 0x00,0x00,0x00,0x00,0x00,0x00,0x00,0x00,0x00,0x00,0x00,0x00,0x00,0x00,0x00,0x00,0x00,0x00,0x00,0x00,0x00,0x00,0x00,0x00,0x00,0x00,0x00,0x00,0x00,0x00,0x00,0x00
     276.  04:8F40  00 00 00 00 00 00 00 00 00 00 00 00 00 00 00 00 
     276.  04:8F50  00 00 00 00 00 00 00 00 00 00 00 00 00 00 00 00 
     277.  04:8F60                          db 0x00,0x00,0x00,0x00,0x00,0x00,0x00,0x00,0x00,0x00,0x00,0x00,0x00,0x00,0x00,0x00,0x00,0x00,0x00,0x00,0x00,0x00,0x00,0x00,0x00,0x00,0x00,0x00,0x00,0x00,0x00,0x00
     277.  04:8F60  00 00 00 00 00 00 00 00 00 00 00 00 00 00 00 00 
     277.  04:8F70  00 00 00 00 00 00 00 00 00 00 00 00 00 00 00 00 
     278.  04:8F80                          db 0x00,0x00,0x00,0x00,0x00,0x00,0x00,0x00,0x00,0x00,0x00,0x00,0x00,0x00,0x00,0x00,0x00,0x00,0x00,0x00,0x00,0x00,0x00,0x00,0x00,0x00,0x00,0x00,0x00,0x00,0x00,0x00
     278.  04:8F80  00 00 00 00 00 00 00 00 00 00 00 00 00 00 00 00 
     278.  04:8F90  00 00 00 00 00 00 00 00 00 00 00 00 00 00 00 00 
     279.  04:8FA0                          db 0x00,0x00,0x00,0x00,0x00,0x00,0x00,0x00,0x00,0x00,0x00,0x00,0x00,0x00,0x00,0x00,0x00,0x00,0x00,0x00,0x00,0x00,0x00,0x00,0x00,0x00,0x00,0x00,0x00,0x00,0x00,0x00
     279.  04:8FA0  00 00 00 00 00 00 00 00 00 00 00 00 00 00 00 00 
     279.  04:8FB0  00 00 00 00 00 00 00 00 00 00 00 00 00 00 00 00 
     280.  04:8FC0                          db 0x00,0x00,0x00,0x00,0x00,0x00,0x00,0x00,0x00,0x00,0x00,0x00,0x00,0x00,0x00,0x00,0x00,0x00,0x00,0x00,0x00,0x00,0x00,0x00,0x00,0x00,0x00,0x00,0x00,0x00,0x00,0x00
     280.  04:8FC0  00 00 00 00 00 00 00 00 00 00 00 00 00 00 00 00 
     280.  04:8FD0  00 00 00 00 00 00 00 00 00 00 00 00 00 00 00 00 
     281.  04:8FE0                          db 0x00,0x00,0x00,0x00,0x00,0x00,0x00,0x00,0x00,0x00,0x00,0x00,0x00,0x00,0x00,0x00,0x00,0x00,0x00,0x00,0x00,0x00,0x00,0x00,0x00,0x00,0x00,0x00,0x00,0x00,0x00,0x00
     281.  04:8FE0  00 00 00 00 00 00 00 00 00 00 00 00 00 00 00 00 
     281.  04:8FF0  00 00 00 00 00 00 00 00 00 00 00 00 00 00 00 00 
     282.  04:9000                          db 0x00,0x00,0x00,0x00,0x00,0x00,0x00,0x00,0x00,0x00,0x00,0x00,0x00,0x00,0x00,0x00,0x00,0x00,0x00,0x00,0x00,0x00,0x00,0x00,0x00,0x00,0x00,0x00,0x00,0x00,0x00,0x00
     282.  04:9000  00 00 00 00 00 00 00 00 00 00 00 00 00 00 00 00 
     282.  04:9010  00 00 00 00 00 00 00 00 00 00 00 00 00 00 00 00 
     283.  04:9020                          db 0x00,0x00,0x00,0x00,0x00,0x00,0x00,0x00,0x00,0x00,0x00,0x00,0x00,0x00,0x00,0x00,0x00,0x00,0x00,0x00,0x00,0x00,0x00,0x00,0x00,0x00,0x00,0x00,0x00,0x00,0x00,0x00
     283.  04:9020  00 00 00 00 00 00 00 00 00 00 00 00 00 00 00 00 
     283.  04:9030  00 00 00 00 00 00 00 00 00 00 00 00 00 00 00 00 
     284.  04:9040                          db 0x00,0x00,0x00,0x00,0x00,0x00,0x00,0x00,0x00,0x00,0x00,0x00,0x00,0x00,0x00,0x00,0x00,0x00,0x00,0x00,0x00,0x00,0x00,0x00,0x00,0x00,0x00,0x00,0x00,0x00,0x00,0x00
     284.  04:9040  00 00 00 00 00 00 00 00 00 00 00 00 00 00 00 00 
     284.  04:9050  00 00 00 00 00 00 00 00 00 00 00 00 00 00 00 00 
     285.  04:9060                          db 0x00,0x00,0x00,0x00,0x00,0x00,0x00,0x00,0x00,0x00,0x00,0x00,0x00,0x00,0x00,0x00,0x00,0x00,0x00,0x00,0x00,0x00,0x00,0x00,0x00,0x00,0x00,0x00,0x00,0x00,0x00,0x00
     285.  04:9060  00 00 00 00 00 00 00 00 00 00 00 00 00 00 00 00 
     285.  04:9070  00 00 00 00 00 00 00 00 00 00 00 00 00 00 00 00 
     286.  04:9080                          db 0x00,0x00,0x00,0x00,0x00,0x00,0x00,0x00,0x00,0x00,0x00,0x00,0x00,0x00,0x00,0x00,0x00,0x00,0x00,0x00,0x00,0x00,0x00,0x00,0x00,0x00,0x00,0x00,0x00,0x00,0x00,0x00
     286.  04:9080  00 00 00 00 00 00 00 00 00 00 00 00 00 00 00 00 
     286.  04:9090  00 00 00 00 00 00 00 00 00 00 00 00 00 00 00 00 
     287.  04:90A0                          db 0x00,0x00,0x00,0x00,0x00,0x00,0x00,0x00,0x00,0x00,0x00,0x00,0x00,0x00,0x00,0x00,0x00,0x00,0x00,0x00,0x00,0x00,0x00,0x00,0x00,0x00,0x00,0x00,0x00,0x00,0x00,0x00
     287.  04:90A0  00 00 00 00 00 00 00 00 00 00 00 00 00 00 00 00 
     287.  04:90B0  00 00 00 00 00 00 00 00 00 00 00 00 00 00 00 00 
     288.  04:90C0                          db 0x00,0x00,0x00,0x00,0x00,0x00,0x00,0x00,0x00,0x00,0x00,0x00,0x00,0x00,0x00,0x00,0x00,0x00,0x00,0x00,0x00,0x00,0x00,0x00,0x00,0x00,0x00,0x00,0x00,0x00,0x00,0x00
     288.  04:90C0  00 00 00 00 00 00 00 00 00 00 00 00 00 00 00 00 
     288.  04:90D0  00 00 00 00 00 00 00 00 00 00 00 00 00 00 00 00 
     289.  04:90E0                          db 0x00,0x00,0x00,0x00,0x00,0x00,0x00,0x00,0x00,0x00,0x00,0x00,0x00,0x00,0x00,0x00,0x00,0x00,0x00,0x00,0x00,0x00,0x00,0x00,0x00,0x00,0x00,0x00,0x00,0x00,0x00,0x00
     289.  04:90E0  00 00 00 00 00 00 00 00 00 00 00 00 00 00 00 00 
     289.  04:90F0  00 00 00 00 00 00 00 00 00 00 00 00 00 00 00 00 
     290.  04:9100                          db 0x00,0x00,0x00,0x00,0x00,0x00,0x00,0x00,0x00,0x00,0x00,0x00,0x00,0x00,0x00,0x00,0x00,0x00,0x00,0x00,0x00,0x00,0x00,0x00,0x00,0x00,0x00,0x00,0x00,0x00,0x00,0x00
     290.  04:9100  00 00 00 00 00 00 00 00 00 00 00 00 00 00 00 00 
     290.  04:9110  00 00 00 00 00 00 00 00 00 00 00 00 00 00 00 00 
     291.  04:9120                          db 0x00,0x00,0x00,0x00,0x00,0x00,0x00,0x00,0x00,0x00,0x00,0x00,0x00,0x00,0x00,0x00,0x00,0x00,0x00,0x00,0x00,0x00,0x00,0x00,0x00,0x00,0x00,0x00,0x00,0x00,0x00,0x00
     291.  04:9120  00 00 00 00 00 00 00 00 00 00 00 00 00 00 00 00 
     291.  04:9130  00 00 00 00 00 00 00 00 00 00 00 00 00 00 00 00 
     292.  04:9140                          db 0x00,0x00,0x00,0x00,0x00,0x00,0x00,0x00,0x00,0x00,0x00,0x00,0x00,0x00,0x00,0x00,0x00,0x00,0x00,0x00,0x00,0x00,0x00,0x00,0x00,0x00,0x00,0x00,0x00,0x00,0x00,0x00
     292.  04:9140  00 00 00 00 00 00 00 00 00 00 00 00 00 00 00 00 
     292.  04:9150  00 00 00 00 00 00 00 00 00 00 00 00 00 00 00 00 
     293.  04:9160                          db 0x00,0x00,0x00,0x00,0x00,0x00,0x00,0x00,0x00,0x00,0x00,0x00,0x00,0x00,0x00,0x00,0x00,0x00,0x00,0x00,0x00,0x00,0x00,0x00,0x00,0x00,0x00,0x00,0x00,0x00,0x00,0x00
     293.  04:9160  00 00 00 00 00 00 00 00 00 00 00 00 00 00 00 00 
     293.  04:9170  00 00 00 00 00 00 00 00 00 00 00 00 00 00 00 00 
     294.  04:9180                          db 0x00,0x00,0x00,0x00,0x00,0x00,0x00,0x00,0x00,0x00,0x00,0x00,0x00,0x00,0x00,0x00,0x00,0x00,0x00,0x00,0x00,0x00,0x00,0x00,0x00,0x00,0x00,0x00,0x00,0x00,0x00,0x00
     294.  04:9180  00 00 00 00 00 00 00 00 00 00 00 00 00 00 00 00 
     294.  04:9190  00 00 00 00 00 00 00 00 00 00 00 00 00 00 00 00 
     295.  04:91A0                          db 0x00,0x00,0x00,0x00,0x00,0x00,0x00,0x00,0x00,0x00,0x00,0x00,0x00,0x00,0x00,0x00,0x00,0x00,0x00,0x00,0x00,0x00,0x00,0x00,0x00,0x00,0x00,0x00,0xFF,0xFF,0xFF,0xFF
     295.  04:91A0  00 00 00 00 00 00 00 00 00 00 00 00 00 00 00 00 
     295.  04:91B0  00 00 00 00 00 00 00 00 00 00 00 00 FF FF FF FF 
     296.  04:91C0                          db 0xF4,0xF6,0xF8,0xFA,0xFD,0x00,0x03,0x06,0x09,0x0C,0x09,0x09,0x09,0x08,0x07,0x05,0x04,0x03,0x01,0x00,0xFE,0xFD,0xFB,0xFA,0xF8,0xF7,0xF5,0xF4,0xF4,0xF3,0xF3,0xF3
     296.  04:91C0  F4 F6 F8 FA FD 00 03 06 09 0C 09 09 09 08 07 05 
     296.  04:91D0  04 03 01 00 FE FD FB FA F8 F7 F5 F4 F4 F3 F3 F3 
     297.  04:91E0                          db 0xCC,0xDB,0xE7,0xF3,0x00,0x0C,0x17,0x23,0x2A,0x2F,0x31,0x31,0x2E,0x2A,0x25,0x20,0x1A,0x14,0x0F,0x0A,0x04,0xFD,0xF7,0xF1,0xEA,0xE2,0xDA,0xD4,0xCD,0xC7,0xC4,0xC5
     297.  04:91E0  CC DB E7 F3 00 0C 17 23 2A 2F 31 31 2E 2A 25 20 
     297.  04:91F0  1A 14 0F 0A 04 FD F7 F1 EA E2 DA D4 CD C7 C4 C5 
     298.  04:9200                          db 0xBF,0xC9,0xDB,0xEE,0x01,0x12,0x22,0x30,0x39,0x3C,0x3D,0x39,0x31,0x2B,0x25,0x1F,0x18,0x12,0x0E,0x0A,0x06,0x02,0xFC,0xF6,0xEE,0xE5,0xDC,0xD2,0xC7,0xBC,0xB4,0xB8
     298.  04:9200  BF C9 DB EE 01 12 22 30 39 3C 3D 39 31 2B 25 1F 
     298.  04:9210  18 12 0E 0A 06 02 FC F6 EE E5 DC D2 C7 BC B4 B8 
     299.  04:9220                          db 0xBA,0xC7,0xDB,0xF0,0x05,0x18,0x2C,0x3B,0x43,0x47,0x44,0x3D,0x33,0x2B,0x24,0x1B,0x13,0x0E,0x0A,0x06,0x03,0x00,0xFC,0xF6,0xEE,0xE5,0xDB,0xCF,0xC3,0xB6,0xAF,0xB4
     299.  04:9220  BA C7 DB F0 05 18 2C 3B 43 47 44 3D 33 2B 24 1B 
     299.  04:9230  13 0E 0A 06 03 00 FC F6 EE E5 DB CF C3 B6 AF B4 
     300.  04:9240                          db 0xB5,0xC5,0xDA,0xF2,0x07,0x1C,0x30,0x3E,0x45,0x48,0x45,0x3B,0x30,0x27,0x20,0x16,0x0F,0x0B,0x08,0x05,0x05,0x03,0xFF,0xFA,0xF2,0xE8,0xDC,0xCE,0xC0,0xB1,0xAC,0xAF
     300.  04:9240  B5 C5 DA F2 07 1C 30 3E 45 48 45 3B 30 27 20 16 
     300.  04:9250  0F 0B 08 05 05 03 FF FA F2 E8 DC CE C0 B1 AC AF 
     301.  04:9260                          db 0xD4,0xDA,0xEA,0xF7,0x00,0x0C,0x17,0x1C,0x20,0x23,0x20,0x1D,0x1C,0x17,0x18,0x1B,0x1A,0x17,0x15,0x04,0x00,0x00,0xFE,0xFA,0xFA,0xF4,0xEB,0xE4,0xDB,0xCF,0xC8,0xD1
     301.  04:9260  D4 DA EA F7 00 0C 17 1C 20 23 20 1D 1C 17 18 1B 
     301.  04:9270  1A 17 15 04 00 00 FE FA FA F4 EB E4 DB CF C8 D1 
     302.  04:9280                          db 0xCF,0xE0,0xEE,0x05,0x0F,0x16,0x1E,0x1B,0x15,0x14,0x0B,0x08,0x0B,0x08,0x0E,0x16,0x19,0x1D,0x1F,0x17,0x16,0x0F,0x08,0x05,0xFB,0xF4,0xEC,0xE2,0xD8,0xCF,0xC4,0xC2
     302.  04:9280  CF E0 EE 05 0F 16 1E 1B 15 14 0B 08 0B 08 0E 16 
     302.  04:9290  19 1D 1F 17 16 0F 08 05 FB F4 EC E2 D8 CF C4 C2 
     303.  04:92A0                          db 0xD2,0xE2,0xF1,0x0C,0x10,0x17,0x1C,0x13,0x0F,0x0D,0x01,0x06,0x06,0x07,0x14,0x17,0x1D,0x26,0x21,0x1C,0x19,0x0D,0x0A,0x04,0xFB,0xF8,0xEF,0xE2,0xDD,0xD3,0xC4,0xC1
     303.  04:92A0  D2 E2 F1 0C 10 17 1C 13 0F 0D 01 06 06 07 14 17 
     303.  04:92B0  1D 26 21 1C 19 0D 0A 04 FB F8 EF E2 DD D3 C4 C1 
     304.  04:92C0                          db 0xDA,0xE5,0xF7,0x0B,0x0F,0x16,0x17,0x12,0x0F,0x0C,0x00,0x07,0x05,0x09,0x12,0x18,0x1D,0x27,0x23,0x20,0x19,0x0E,0x07,0xFF,0xF4,0xF0,0xE7,0xDD,0xDA,0xD1,0xC9,0xC7
     304.  04:92C0  DA E5 F7 0B 0F 16 17 12 0F 0C 00 07 05 09 12 18 
     304.  04:92D0  1D 27 23 20 19 0E 07 FF F4 F0 E7 DD DA D1 C9 C7 
     305.  04:92E0                          db 0xD6,0xE7,0xEB,0xFD,0x06,0x0B,0x0F,0x12,0x0E,0x14,0x0F,0x0F,0x11,0x0E,0x11,0x14,0x16,0x1B,0x20,0x1D,0x1C,0x12,0x0B,0x00,0xF5,0xEE,0xE7,0xDF,0xDF,0xD6,0xD4,0xCF
     305.  04:92E0  D6 E7 EB FD 06 0B 0F 12 0E 14 0F 0F 11 0E 11 14 
     305.  04:92F0  16 1B 20 1D 1C 12 0B 00 F5 EE E7 DF DF D6 D4 CF 
     306.  04:9300                          db 0xF1,0xF2,0xF7,0xF9,0xFD,0xFE,0x02,0x03,0x05,0x07,0x07,0x0A,0x0A,0x0E,0x0C,0x0F,0x0D,0x11,0x0D,0x0E,0x0A,0x05,0x03,0x00,0xFD,0xFB,0xFA,0xEC,0xEB,0xEA,0xEC,0xEE
     306.  04:9300  F1 F2 F7 F9 FD FE 02 03 05 07 07 0A 0A 0E 0C 0F 
     306.  04:9310  0D 11 0D 0E 0A 05 03 00 FD FB FA EC EB EA EC EE 
     307.  04:9320                          db 0x04,0xFE,0xFC,0x06,0xFF,0xFC,0x05,0x03,0xFC,0x01,0x07,0xFE,0xFB,0x0C,0xFC,0xFE,0x05,0xFC,0xFF,0x05,0xFC,0x01,0x02,0x01,0xFE,0xFE,0x0A,0xF7,0xFE,0x08,0xF9,0xFE
     307.  04:9320  04 FE FC 06 FF FC 05 03 FC 01 07 FE FB 0C FC FE 
     307.  04:9330  05 FC FF 05 FC 01 02 01 FE FE 0A F7 FE 08 F9 FE 
     308.  04:9340                          db 0xFE,0xFF,0x00,0x04,0xFB,0x00,0x03,0xFF,0x01,0xFF,0x02,0xFE,0xFC,0x0A,0xF6,0x02,0x03,0xFB,0x05,0xFF,0xFC,0x06,0xFC,0x02,0xFC,0x01,0x09,0xF2,0x09,0x01,0xF9,0x07
     308.  04:9340  FE FF 00 04 FB 00 03 FF 01 FF 02 FE FC 0A F6 02 
     308.  04:9350  03 FB 05 FF FC 06 FC 02 FC 01 09 F2 09 01 F9 07 
     309.  04:9360                          db 0xF6,0x02,0x01,0x03,0xFD,0xFD,0x0C,0xF3,0xFF,0x0E,0xF4,0x01,0x03,0x03,0xF1,0x13,0xF9,0xF9,0x08,0xFF,0xFB,0x01,0x0C,0xF4,0xFE,0x0C,0xFE,0xF4,0x0B,0x03,0xF2,0x11
     309.  04:9360  F6 02 01 03 FD FD 0C F3 FF 0E F4 01 03 03 F1 13 
     309.  04:9370  F9 F9 08 FF FB 01 0C F4 FE 0C FE F4 0B 03 F2 11 
     310.  04:9380                          db 0xFF,0xEC,0x15,0xFE,0xED,0x0C,0x0E,0xEB,0xFE,0x17,0xEF,0xFB,0x0D,0xFE,0xEF,0x18,0xF8,0xF3,0x11,0xFD,0xF0,0x13,0x02,0xF0,0xFF,0x16,0xF8,0xF0,0x17,0xF9,0xF1,0x13
     310.  04:9380  FF EC 15 FE ED 0C 0E EB FE 17 EF FB 0D FE EF 18 
     310.  04:9390  F8 F3 11 FD F0 13 02 F0 FF 16 F8 F0 17 F9 F1 13 
     311.  04:93A0                          db 0xFA,0x01,0x04,0xFB,0x06,0xFB,0x08,0xF9,0xFE,0x0B,0xF6,0x00,0x09,0xF7,0xFD,0x0D,0xF5,0xFF,0x09,0xFD,0x00,0x03,0xFE,0xFF,0x01,0x04,0xFA,0xFF,0x06,0xFD,0xF9,0x09
     311.  04:93A0  FA 01 04 FB 06 FB 08 F9 FE 0B F6 00 09 F7 FD 0D 
     311.  04:93B0  F5 FF 09 FD 00 03 FE FF 01 04 FA FF 06 FD F9 09 
     312.  04:93C0                          db 0xFE,0xFA,0x09,0xFA,0xFF,0x02,0x02,0xF9,0x00,0x0A,0xF3,0x05,0x08,0xF5,0x05,0x02,0xFF,0xFB,0x06,0x01,0xFA,0x06,0xFD,0xFF,0x02,0x02,0xFD,0xFC,0x0B,0xF6,0x00,0x06
     312.  04:93C0  FE FA 09 FA FF 02 02 F9 00 0A F3 05 08 F5 05 02 
     312.  04:93D0  FF FB 06 01 FA 06 FD FF 02 02 FD FC 0B F6 00 06 
     313.  04:93E0                          db 0xFB,0x03,0x02,0xFF,0x00,0xFE,0x03,0xFF,0xFF,0x03,0xFD,0x01,0x02,0xFC,0x01,0x00,0x00,0x01,0xFF,0xFF,0x01,0x01,0xFD,0x01,0xFF,0x01,0xFF,0x00,0x01,0xFF,0x01,0x03
     313.  04:93E0  FB 03 02 FF 00 FE 03 FF FF 03 FD 01 02 FC 01 00 
     313.  04:93F0  00 01 FF FF 01 01 FD 01 FF 01 FF 00 01 FF 01 03 
     314.  04:9400                          db 0x08,0x07,0x08,0x09,0x08,0x07,0x07,0x05,0x04,0x03,0x00,0xFE,0xFC,0xF8,0xF6,0xF4,0xF3,0xF5,0xF6,0xF8,0xFA,0xFA,0xF9,0xFA,0xFA,0xFC,0xFE,0x00,0x03,0x05,0x06,0x07
     314.  04:9400  08 07 08 09 08 07 07 05 04 03 00 FE FC F8 F6 F4 
     314.  04:9410  F3 F5 F6 F8 FA FA F9 FA FA FC FE 00 03 05 06 07 
     315.  04:9420                          db 0x14,0x18,0x18,0x17,0x16,0x15,0x10,0x0F,0x0A,0x06,0x03,0xFE,0xF8,0xF2,0xE7,0xD7,0xCD,0xC2,0xCD,0xDC,0xEC,0x01,0x0E,0x10,0x13,0x12,0x0B,0x0C,0x0C,0x0D,0x12,0x14
     315.  04:9420  14 18 18 17 16 15 10 0F 0A 06 03 FE F8 F2 E7 D7 
     315.  04:9430  CD C2 CD DC EC 01 0E 10 13 12 0B 0C 0C 0D 12 14 
     316.  04:9440                          db 0x12,0x10,0x0D,0x0B,0x06,0x04,0x04,0x01,0x03,0x07,0x0A,0x0A,0x06,0xFE,0xF2,0xE0,0xCE,0xC2,0xCC,0xD9,0xEB,0x00,0x09,0x0F,0x14,0x0E,0x0E,0x0F,0x0F,0x12,0x13,0x10
     316.  04:9440  12 10 0D 0B 06 04 04 01 03 07 0A 0A 06 FE F2 E0 
     316.  04:9450  CE C2 CC D9 EB 00 09 0F 14 0E 0E 0F 0F 12 13 10 
     317.  04:9460                          db 0x0D,0x0A,0x09,0x08,0x05,0x05,0x03,0x03,0x06,0x08,0x0A,0x0B,0x08,0x01,0xF6,0xE6,0xD5,0xCC,0xD0,0xD4,0xE3,0xF2,0xFB,0x09,0x10,0x13,0x19,0x1A,0x19,0x18,0x12,0x0F
     317.  04:9460  0D 0A 09 08 05 05 03 03 06 08 0A 0B 08 01 F6 E6 
     317.  04:9470  D5 CC D0 D4 E3 F2 FB 09 10 13 19 1A 19 18 12 0F 
     318.  04:9480                          db 0x0C,0x07,0x02,0xFF,0xFE,0xFE,0x01,0x05,0x08,0x0B,0x0B,0x07,0x02,0xF9,0xEC,0xDE,0xD2,0xCC,0xCA,0xD0,0xD9,0xE7,0xF8,0x07,0x16,0x22,0x2A,0x2D,0x2A,0x23,0x1B,0x13
     318.  04:9480  0C 07 02 FF FE FE 01 05 08 0B 0B 07 02 F9 EC DE 
     318.  04:9490  D2 CC CA D0 D9 E7 F8 07 16 22 2A 2D 2A 23 1B 13 
     319.  04:94A0                          db 0x0E,0x09,0x05,0x03,0x02,0x03,0x05,0x06,0x07,0x0A,0x08,0x04,0xFC,0xF2,0xE7,0xDB,0xD2,0xCC,0xCD,0xD2,0xDB,0xE9,0xF8,0x07,0x16,0x21,0x29,0x2C,0x2A,0x24,0x1D,0x15
     319.  04:94A0  0E 09 05 03 02 03 05 06 07 0A 08 04 FC F2 E7 DB 
     319.  04:94B0  D2 CC CD D2 DB E9 F8 07 16 21 29 2C 2A 24 1D 15 
     320.  04:94C0                          db 0x0E,0x0A,0x07,0x04,0x02,0x01,0xFF,0xFF,0xFD,0x00,0xFE,0xFA,0xF5,0xF0,0xE9,0xE3,0xDC,0xD7,0xD7,0xDB,0xE3,0xEE,0xFB,0x07,0x13,0x1D,0x24,0x28,0x26,0x21,0x1B,0x14
     320.  04:94C0  0E 0A 07 04 02 01 FF FF FD 00 FE FA F5 F0 E9 E3 
     320.  04:94D0  DC D7 D7 DB E3 EE FB 07 13 1D 24 28 26 21 1B 14 
     321.  04:94E0                          db 0x09,0x06,0x04,0x02,0x00,0xFE,0xFB,0xFB,0xFA,0xFA,0xFA,0xFA,0xF8,0xF7,0xF5,0xF3,0xF1,0xF1,0xF1,0xF3,0xF6,0xFB,0x00,0x04,0x09,0x0C,0x0F,0x10,0x10,0x0F,0x0D,0x0B
     321.  04:94E0  09 06 04 02 00 FE FB FB FA FA FA FA F8 F7 F5 F3 
     321.  04:94F0  F1 F1 F1 F3 F6 FB 00 04 09 0C 0F 10 10 0F 0D 0B 
     322.  04:9500                          db 0x01,0x00,0xFF,0xFF,0xFE,0xFE,0xFF,0xFF,0xFF,0xFF,0x00,0x00,0x01,0x01,0x01,0x00,0x00,0x00,0x00,0x00,0xFF,0xFF,0xFF,0xFF,0x00,0x04,0x04,0x03,0x03,0x03,0x02,0x02
     322.  04:9500  01 00 FF FF FE FE FF FF FF FF 00 00 01 01 01 00 
     322.  04:9510  00 00 00 00 FF FF FF FF 00 04 04 03 03 03 02 02 
     323.  04:9520                          db 0x02,0x01,0xFB,0xFF,0x03,0xFE,0xFF,0x02,0xFE,0xFF,0x03,0xFF,0x00,0x01,0xFF,0xFF,0x01,0xFF,0xFF,0x01,0x00,0xFF,0x01,0x00,0x00,0x01,0x00,0x00,0x00,0x00,0x00,0x00
     323.  04:9520  02 01 FB FF 03 FE FF 02 FE FF 03 FF 00 01 FF FF 
     323.  04:9530  01 FF FF 01 00 FF 01 00 00 01 00 00 00 00 00 00 
     324.  04:9540                          db 0x06,0xFE,0xFB,0x00,0xFF,0xFE,0x02,0x00,0xFF,0x04,0x03,0xFF,0x04,0x07,0xFC,0xFC,0x01,0xFB,0xFD,0x04,0xFD,0xFF,0x05,0x04,0xFF,0xFE,0xFF,0xFF,0xFD,0x01,0x01,0x01
     324.  04:9540  06 FE FB 00 FF FE 02 00 FF 04 03 FF 04 07 FC FC 
     324.  04:9550  01 FB FD 04 FD FF 05 04 FF FE FF FF FD 01 01 01 
     325.  04:9560                          db 0xFD,0xFC,0xFF,0x01,0xFF,0xFE,0x02,0x01,0x00,0x00,0x01,0x04,0x03,0xFE,0xFB,0x02,0xFF,0xF9,0xFF,0x05,0x01,0xFC,0x01,0x07,0x03,0xFC,0xFF,0x04,0x00,0xFB,0xFF,0x01
     325.  04:9560  FD FC FF 01 FF FE 02 01 00 00 01 04 03 FE FB 02 
     325.  04:9570  FF F9 FF 05 01 FC 01 07 03 FC FF 04 00 FB FF 01 
     326.  04:9580                          db 0xFC,0xF8,0xF9,0xFA,0xFE,0xFE,0x00,0x00,0xFF,0x00,0x00,0x02,0x00,0xFF,0x02,0x03,0x02,0x03,0x05,0x06,0x04,0x02,0x05,0x06,0x04,0x00,0x01,0x01,0xFD,0xFC,0xFD,0xFF
     326.  04:9580  FC F8 F9 FA FE FE 00 00 FF 00 00 02 00 FF 02 03 
     326.  04:9590  02 03 05 06 04 02 05 06 04 00 01 01 FD FC FD FF 
     327.  04:95A0                          db 0xDB,0xD5,0xD3,0xD7,0xDD,0xE2,0xEF,0xFD,0x06,0x07,0x07,0x0A,0x0B,0x0B,0x0B,0x12,0x17,0x1C,0x1E,0x20,0x20,0x1D,0x19,0x14,0x0E,0x08,0x03,0x00,0xF9,0xF0,0xE7,0xE2
     327.  04:95A0  DB D5 D3 D7 DD E2 EF FD 06 07 07 0A 0B 0B 0B 12 
     327.  04:95B0  17 1C 1E 20 20 1D 19 14 0E 08 03 00 F9 F0 E7 E2 
     328.  04:95C0                          db 0xDA,0xD1,0xCB,0xC6,0xC7,0xDC,0xFB,0x11,0x14,0x0F,0x0D,0x0E,0x0D,0x0A,0x07,0x08,0x0C,0x11,0x13,0x16,0x1A,0x1E,0x20,0x1C,0x18,0x14,0x0E,0xFF,0xF6,0xF1,0xEB,0xE3
     328.  04:95C0  DA D1 CB C6 C7 DC FB 11 14 0F 0D 0E 0D 0A 07 08 
     328.  04:95D0  0C 11 13 16 1A 1E 20 1C 18 14 0E FF F6 F1 EB E3 
     329.  04:95E0                          db 0xE3,0xDF,0xE4,0xE8,0xEA,0xEB,0xF0,0xF7,0xFF,0x06,0x0C,0x11,0x16,0x18,0x19,0x19,0x1A,0x1B,0x1D,0x1B,0x17,0x12,0x0F,0x0B,0x06,0x03,0x00,0xFE,0xFA,0xF5,0xF0,0xEA
     329.  04:95E0  E3 DF E4 E8 EA EB F0 F7 FF 06 0C 11 16 18 19 19 
     329.  04:95F0  1A 1B 1D 1B 17 12 0F 0B 06 03 00 FE FA F5 F0 EA 
     330.  04:9600                          db 0xE4,0xDD,0xDB,0xD8,0xD5,0xD6,0xDE,0xEB,0xF8,0x05,0x12,0x20,0x2A,0x2D,0x2E,0x2D,0x29,0x23,0x19,0x11,0x0B,0x06,0x00,0xFB,0xFA,0xFC,0xFC,0xFA,0xF9,0xF8,0xF5,0xED
     330.  04:9600  E4 DD DB D8 D5 D6 DE EB F8 05 12 20 2A 2D 2E 2D 
     330.  04:9610  29 23 19 11 0B 06 00 FB FA FC FC FA F9 F8 F5 ED 
     331.  04:9620                          db 0xEE,0xE9,0xE6,0xE3,0xE1,0xE2,0xE6,0xED,0xF5,0xFD,0x07,0x1A,0x21,0x24,0x26,0x25,0x22,0x1C,0x14,0x0E,0x09,0x04,0xFF,0xFC,0xFC,0xFC,0xFB,0xFB,0xFB,0xFA,0xF7,0xF2
     331.  04:9620  EE E9 E6 E3 E1 E2 E6 ED F5 FD 07 1A 21 24 26 25 
     331.  04:9630  22 1C 14 0E 09 04 FF FC FC FC FB FB FB FA F7 F2 
     332.  04:9640                          db 0xF9,0xF9,0xF8,0xF8,0xF9,0xFA,0xFA,0xFC,0xFE,0x00,0x05,0x09,0x0C,0x0E,0x0F,0x0E,0x0E,0x0C,0x0A,0x08,0x06,0x04,0x02,0x01,0x00,0xFE,0xFD,0xFC,0xFB,0xFB,0xFA,0xFA
     332.  04:9640  F9 F9 F8 F8 F9 FA FA FC FE 00 05 09 0C 0E 0F 0E 
     332.  04:9650  0E 0C 0A 08 06 04 02 01 00 FE FD FC FB FB FA FA 
     333.  04:9660                          db 0x01,0x01,0x00,0x00,0xFF,0xFF,0x00,0xFF,0xFF,0x00,0x00,0x00,0x01,0x01,0x01,0x01,0x01,0x01,0x00,0x00,0x00,0xFF,0xFF,0xFF,0xFF,0xFF,0xFF,0x00,0x00,0x01,0x01,0x01
     333.  04:9660  01 01 00 00 FF FF 00 FF FF 00 00 00 01 01 01 01 
     333.  04:9670  01 01 00 00 00 FF FF FF FF FF FF 00 00 01 01 01 
     334.  04:9680                          db 0x00,0x00,0x00,0x00,0x00,0x00,0x00,0x00,0x00,0x00,0x00,0x00,0x01,0x01,0x01,0x01,0x01,0x00,0x00,0x00,0x00,0x00,0x00,0x00,0x00,0x00,0x00,0x00,0x00,0x00,0x00,0x00
     334.  04:9680  00 00 00 00 00 00 00 00 00 00 00 00 01 01 01 01 
     334.  04:9690  01 00 00 00 00 00 00 00 00 00 00 00 00 00 00 00 
     335.  04:96A0                          db 0x00,0x01,0x00,0x01,0x01,0xFE,0xFF,0x02,0x01,0x00,0x00,0xFF,0x00,0x01,0x01,0x01,0x00,0x01,0x01,0x00,0x00,0x00,0x00,0xFF,0x00,0x00,0x00,0xFF,0xFF,0xFF,0x00,0xFE
     335.  04:96A0  00 01 00 01 01 FE FF 02 01 00 00 FF 00 01 01 01 
     335.  04:96B0  00 01 01 00 00 00 00 FF 00 00 00 FF FF FF 00 FE 
     336.  04:96C0                          db 0x00,0x00,0x00,0x01,0x02,0x00,0x00,0x01,0xFF,0x00,0x01,0x00,0xFF,0x00,0x00,0x02,0x00,0xFF,0xFF,0xFF,0x00,0xFF,0x01,0x01,0x00,0x01,0xFF,0xFF,0xFF,0x00,0xFF,0xFF
     336.  04:96C0  00 00 00 01 02 00 00 01 FF 00 01 00 FF 00 00 02 
     336.  04:96D0  00 FF FF FF 00 FF 01 01 00 01 FF FF FF 00 FF FF 
     337.  04:96E0                          db 0xFE,0x00,0xFF,0xFF,0x00,0x01,0x00,0x01,0x00,0x01,0x02,0xFF,0xFE,0xFF,0x01,0x02,0x00,0x00,0xFF,0xFE,0x00,0x01,0x01,0x01,0x00,0x00,0x02,0x00,0xFF,0x00,0xFF,0xFF
     337.  04:96E0  FE 00 FF FF 00 01 00 01 00 01 02 FF FE FF 01 02 
     337.  04:96F0  00 00 FF FE 00 01 01 01 00 00 02 00 FF 00 FF FF 
     338.  04:9700                          db 0xFF,0x01,0xFF,0xFF,0x00,0x00,0x02,0x02,0x01,0x01,0x01,0x00,0xFF,0xFE,0xFF,0xFF,0x01,0xFF,0xFF,0x00,0x01,0x01,0x00,0x00,0xFF,0x00,0x01,0x01,0x01,0xFF,0xFF,0x00
     338.  04:9700  FF 01 FF FF 00 00 02 02 01 01 01 00 FF FE FF FF 
     338.  04:9710  01 FF FF 00 01 01 00 00 FF 00 01 01 01 FF FF 00 
     339.  04:9720                          db 0xFA,0xFB,0xFC,0x00,0x04,0x06,0x07,0x08,0x09,0x09,0x0A,0x0B,0x08,0x06,0x04,0x05,0x06,0x06,0x03,0x03,0x02,0x00,0xFF,0xFD,0xFC,0xFB,0xFE,0xFD,0xFA,0xF9,0xF9,0xFA
     339.  04:9720  FA FB FC 00 04 06 07 08 09 09 0A 0B 08 06 04 05 
     339.  04:9730  06 06 03 03 02 00 FF FD FC FB FE FD FA F9 F9 FA 
     340.  04:9740                          db 0xC5,0xCB,0xF5,0x18,0x22,0x13,0xFF,0xF6,0x00,0x17,0x28,0x25,0x15,0xFB,0xE5,0xDA,0xCC,0xD3,0xF7,0x13,0x1C,0x12,0x03,0xFA,0x00,0x14,0x25,0x1B,0x14,0x01,0xEB,0xD9
     340.  04:9740  C5 CB F5 18 22 13 FF F6 00 17 28 25 15 FB E5 DA 
     340.  04:9750  CC D3 F7 13 1C 12 03 FA 00 14 25 1B 14 01 EB D9 
     341.  04:9760                          db 0xCD,0xC5,0xC5,0xE1,0xEA,0x00,0x13,0x19,0x1F,0x21,0x18,0x13,0x08,0xFF,0xF9,0xF7,0xF9,0x00,0x09,0x13,0x21,0x27,0x28,0x27,0x1E,0x15,0x09,0xF7,0xEB,0xE4,0xD6,0xD3
     341.  04:9760  CD C5 C5 E1 EA 00 13 19 1F 21 18 13 08 FF F9 F7 
     341.  04:9770  F9 00 09 13 21 27 28 27 1E 15 09 F7 EB E4 D6 D3 
     342.  04:9780                          db 0xC5,0xBD,0xC7,0xDE,0xE7,0x05,0x0D,0x1E,0x22,0x23,0x21,0x18,0x0E,0x05,0xFA,0xF8,0xF4,0xFB,0x00,0x0D,0x1B,0x22,0x2A,0x28,0x24,0x1B,0x0B,0xFC,0xF0,0xDE,0xD7,0xCA
     342.  04:9780  C5 BD C7 DE E7 05 0D 1E 22 23 21 18 0E 05 FA F8 
     342.  04:9790  F4 FB 00 0D 1B 22 2A 28 24 1B 0B FC F0 DE D7 CA 
     343.  04:97A0                          db 0xC1,0xB9,0xCE,0xD3,0xEE,0xFD,0x11,0x1F,0x24,0x2C,0x26,0x20,0x15,0x07,0xFF,0xF5,0xF3,0xF5,0xFA,0x09,0x13,0x21,0x26,0x29,0x25,0x1C,0x0E,0xFE,0xEF,0xDF,0xD3,0xC7
     343.  04:97A0  C1 B9 CE D3 EE FD 11 1F 24 2C 26 20 15 07 FF F5 
     343.  04:97B0  F3 F5 FA 09 13 21 26 29 25 1C 0E FE EF DF D3 C7 
     344.  04:97C0                          db 0xC1,0xB9,0xCA,0xCF,0xEB,0xF8,0x10,0x1C,0x28,0x2D,0x2A,0x26,0x1A,0x0E,0x02,0xF8,0xF3,0xF3,0xF7,0x02,0x0D,0x1B,0x22,0x28,0x25,0x20,0x10,0x04,0xF2,0xE3,0xD6,0xC8
     344.  04:97C0  C1 B9 CA CF EB F8 10 1C 28 2D 2A 26 1A 0E 02 F8 
     344.  04:97D0  F3 F3 F7 02 0D 1B 22 28 25 20 10 04 F2 E3 D6 C8 
     345.  04:97E0                          db 0xC0,0xB8,0xC9,0xCE,0xEA,0xF7,0x0F,0x1C,0x28,0x2F,0x2B,0x28,0x18,0x0F,0xFF,0xF9,0xF1,0xF2,0xF7,0x01,0x0D,0x1A,0x22,0x27,0x26,0x21,0x12,0x05,0xF4,0xE4,0xD5,0xC8
     345.  04:97E0  C0 B8 C9 CE EA F7 0F 1C 28 2F 2B 28 18 0F FF F9 
     345.  04:97F0  F1 F2 F7 01 0D 1A 22 27 26 21 12 05 F4 E4 D5 C8 
     346.  04:9800                          db 0xC4,0xB8,0xC6,0xCE,0xE3,0xF8,0x09,0x1D,0x24,0x30,0x29,0x28,0x18,0x0E,0xFF,0xF6,0xF1,0xF0,0xF7,0x00,0x0F,0x19,0x24,0x28,0x27,0x21,0x14,0x05,0xF6,0xE5,0xD8,0xCA
     346.  04:9800  C4 B8 C6 CE E3 F8 09 1D 24 30 29 28 18 0E FF F6 
     346.  04:9810  F1 F0 F7 00 0F 19 24 28 27 21 14 05 F6 E5 D8 CA 
     347.  04:9820                          db 0xC8,0xBE,0xC9,0xD4,0xE5,0xFB,0x09,0x1D,0x21,0x2C,0x23,0x20,0x11,0x06,0xFB,0xF2,0xF1,0xF2,0xFC,0x03,0x11,0x1D,0x26,0x29,0x26,0x20,0x12,0x03,0xF5,0xE3,0xD9,0xCC
     347.  04:9820  C8 BE C9 D4 E5 FB 09 1D 21 2C 23 20 11 06 FB F2 
     347.  04:9830  F1 F2 FC 03 11 1D 26 29 26 20 12 03 F5 E3 D9 CC 
     348.  04:9840                          db 0xDA,0xD5,0xD5,0xDE,0xE6,0xF5,0xFF,0x0D,0x14,0x1B,0x19,0x16,0x0F,0x07,0x00,0xFC,0xFC,0xFD,0xFE,0x08,0x13,0x1B,0x20,0x1F,0x1B,0x14,0x0A,0xFF,0xF6,0xED,0xE6,0xDF
     348.  04:9840  DA D5 D5 DE E6 F5 FF 0D 14 1B 19 16 0F 07 00 FC 
     348.  04:9850  FC FD FE 08 13 1B 20 1F 1B 14 0A FF F6 ED E6 DF 
     349.  04:9860                          db 0xFA,0xFA,0xFA,0xFA,0xFA,0x00,0x03,0x03,0x04,0x04,0x04,0x03,0x03,0x03,0x02,0x02,0x02,0x02,0x03,0x03,0x04,0x05,0x06,0x05,0x05,0x04,0x03,0x02,0x00,0xFE,0xFD,0xFB
     349.  04:9860  FA FA FA FA FA 00 03 03 04 04 04 03 03 03 02 02 
     349.  04:9870  02 02 03 03 04 05 06 05 05 04 03 02 00 FE FD FB 
     350.  04:9880                          db 0xFE,0xFD,0xFD,0xFE,0xFE,0xFE,0xFE,0xFE,0xFE,0xFF,0xFF,0xFF,0xFF,0x00,0x00,0x01,0x01,0x02,0x02,0x03,0x03,0x03,0x03,0x03,0x02,0x01,0x00,0x00,0xFF,0xFE,0xFE,0xFE
     350.  04:9880  FE FD FD FE FE FE FE FE FE FF FF FF FF 00 00 01 
     350.  04:9890  01 02 02 03 03 03 03 03 02 01 00 00 FF FE FE FE 
     351.  04:98A0                          db 0xFF,0x00,0xFF,0xFF,0xFE,0x02,0x02,0x00,0x01,0x00,0x02,0x02,0x01,0xFE,0xFF,0xFF,0xFE,0xFF,0xFF,0xFF,0x01,0xFF,0x03,0x06,0x03,0x01,0xFD,0xFD,0xFB,0xFF,0x00,0x00
     351.  04:98A0  FF 00 FF FF FE 02 02 00 01 00 02 02 01 FE FF FF 
     351.  04:98B0  FE FF FF FF 01 FF 03 06 03 01 FD FD FB FF 00 00 
     352.  04:98C0                          db 0xF5,0xF6,0xFB,0x01,0x00,0x06,0x0B,0x0B,0x0B,0x0D,0x0C,0x09,0x07,0x03,0x02,0x00,0x01,0x02,0x00,0xFE,0x00,0x04,0x01,0x00,0xFF,0xFC,0xF9,0xF8,0xF8,0xF5,0xF5,0xF6
     352.  04:98C0  F5 F6 FB 01 00 06 0B 0B 0B 0D 0C 09 07 03 02 00 
     352.  04:98D0  01 02 00 FE 00 04 01 00 FF FC F9 F8 F8 F5 F5 F6 
     353.  04:98E0                          db 0xE2,0xE8,0xF7,0xFF,0x0A,0x18,0x21,0x27,0x27,0x26,0x21,0x15,0x0C,0x05,0xFA,0xF4,0xF2,0xF0,0xF1,0xF4,0xF9,0xFF,0x00,0x02,0x05,0x01,0xFC,0xF5,0xEB,0xE4,0xDE,0xE2
     353.  04:98E0  E2 E8 F7 FF 0A 18 21 27 27 26 21 15 0C 05 FA F4 
     353.  04:98F0  F2 F0 F1 F4 F9 FF 00 02 05 01 FC F5 EB E4 DE E2 
     354.  04:9900                          db 0x14,0x17,0x12,0x04,0xFA,0xF5,0x04,0x17,0x26,0x2A,0x1F,0x10,0x00,0xF4,0xEF,0xF0,0xF1,0xEE,0xE6,0xCF,0xD3,0xEA,0x04,0x1C,0x22,0x1C,0x07,0xF3,0xE6,0xE7,0xF4,0x05
     354.  04:9900  14 17 12 04 FA F5 04 17 26 2A 1F 10 00 F4 EF F0 
     354.  04:9910  F1 EE E6 CF D3 EA 04 1C 22 1C 07 F3 E6 E7 F4 05 
     355.  04:9920                          db 0x18,0x13,0x05,0xF9,0xF4,0xFB,0x14,0x22,0x27,0x1B,0x0D,0xFF,0xF9,0xFA,0xFE,0xF9,0xF7,0xEC,0xDF,0xC9,0xCD,0xEE,0x0C,0x25,0x23,0x16,0xFB,0xE9,0xE3,0xEE,0x01,0x13
     355.  04:9920  18 13 05 F9 F4 FB 14 22 27 1B 0D FF F9 FA FE F9 
     355.  04:9930  F7 EC DF C9 CD EE 0C 25 23 16 FB E9 E3 EE 01 13 
     356.  04:9940                          db 0x11,0x15,0x10,0x0A,0x03,0x06,0x0C,0x15,0x1A,0x1B,0x13,0x08,0xFB,0xF3,0xEE,0xED,0xEB,0xE4,0xD9,0xD3,0xDF,0xF9,0x08,0x20,0x1E,0x15,0x01,0xF3,0xEA,0xF0,0xFA,0x08
     356.  04:9940  11 15 10 0A 03 06 0C 15 1A 1B 13 08 FB F3 EE ED 
     356.  04:9950  EB E4 D9 D3 DF F9 08 20 1E 15 01 F3 EA F0 FA 08 
     357.  04:9960                          db 0x15,0x1C,0x15,0x0F,0x06,0x05,0x09,0x11,0x17,0x19,0x12,0x06,0xF8,0xEF,0xEA,0xEA,0xEB,0xE3,0xDB,0xD1,0xE0,0xF9,0x11,0x1F,0x1D,0x12,0x00,0xF2,0xEB,0xF0,0xFB,0x0B
     357.  04:9960  15 1C 15 0F 06 05 09 11 17 19 12 06 F8 EF EA EA 
     357.  04:9970  EB E3 DB D1 E0 F9 11 1F 1D 12 00 F2 EB F0 FB 0B 
     358.  04:9980                          db 0x15,0x19,0x18,0x12,0x0B,0x09,0x09,0x0E,0x12,0x15,0x0F,0x03,0xF6,0xEE,0xE7,0xE7,0xE4,0xDF,0xD7,0xD7,0xED,0x00,0x15,0x1A,0x19,0x0D,0x00,0xF4,0xF0,0xF3,0xFD,0x09
     358.  04:9980  15 19 18 12 0B 09 09 0E 12 15 0F 03 F6 EE E7 E7 
     358.  04:9990  E4 DF D7 D7 ED 00 15 1A 19 0D 00 F4 F0 F3 FD 09 
     359.  04:99A0                          db 0x12,0x1A,0x1C,0x17,0x10,0x09,0x06,0x08,0x0B,0x0B,0x08,0x02,0xFA,0xF0,0xEA,0xE2,0xDD,0xD9,0xD9,0xE6,0xF7,0x07,0x15,0x18,0x17,0x0C,0x02,0xF7,0xF3,0xF4,0xFD,0x07
     359.  04:99A0  12 1A 1C 17 10 09 06 08 0B 0B 08 02 FA F0 EA E2 
     359.  04:99B0  DD D9 D9 E6 F7 07 15 18 17 0C 02 F7 F3 F4 FD 07 
     360.  04:99C0                          db 0x0E,0x13,0x15,0x11,0x0C,0x08,0x05,0x05,0x04,0x03,0x01,0xFE,0xF9,0xF6,0xF1,0xEE,0xEB,0xEB,0xEC,0xF1,0xF7,0xFD,0x03,0x06,0x08,0x08,0x06,0x03,0x02,0x01,0x03,0x05
     360.  04:99C0  0E 13 15 11 0C 08 05 05 04 03 01 FE F9 F6 F1 EE 
     360.  04:99D0  EB EB EC F1 F7 FD 03 06 08 08 06 03 02 01 03 05 
     361.  04:99E0                          db 0x08,0x07,0x05,0x03,0x01,0x00,0xFF,0xFF,0xFE,0xFE,0xFE,0xFD,0xFD,0xFD,0xFC,0xFB,0xFA,0xF9,0xF9,0xF8,0xF8,0xF9,0xFA,0xFD,0xFF,0x02,0x04,0x06,0x08,0x0A,0x0A,0x0A
     361.  04:99E0  08 07 05 03 01 00 FF FF FE FE FE FD FD FD FC FB 
     361.  04:99F0  FA F9 F9 F8 F8 F9 FA FD FF 02 04 06 08 0A 0A 0A 
     362.  04:9A00                          CODE
     363.  04:9A00                      data3:
     364.  04:9A00                          db 0x00,0x00,0x00,0x00,0x00,0x00,0x00,0x00,0x00,0x00,0x00,0x00,0x00,0x00,0x00,0x00,0x00,0x00,0x00,0x00,0x00,0x00,0x00,0x00,0x00,0x00,0x00,0x00,0x00,0x00,0x00,0x00
     364.  04:9A00  00 00 00 00 00 00 00 00 00 00 00 00 00 00 00 00 
     364.  04:9A10  00 00 00 00 00 00 00 00 00 00 00 00 00 00 00 00 
     365.  04:9A20                          db 0x00,0x00,0x00,0x00,0x00,0x00,0x00,0x00,0x00,0x00,0x00,0x00,0x00,0x00,0x00,0x00,0x00,0x00,0x00,0x00,0x00,0x00,0x00,0x00,0x00,0x00,0x00,0x00,0x00,0x00,0x00,0x00
     365.  04:9A20  00 00 00 00 00 00 00 00 00 00 00 00 00 00 00 00 
     365.  04:9A30  00 00 00 00 00 00 00 00 00 00 00 00 00 00 00 00 
     366.  04:9A40                          db 0x00,0x00,0x00,0x00,0x00,0x00,0x00,0x00,0x00,0x00,0x00,0x00,0x00,0x00,0x00,0x00,0x00,0x00,0x00,0x00,0x00,0x00,0x00,0x00,0x00,0x00,0x00,0x00,0x00,0x00,0x00,0x00
     366.  04:9A40  00 00 00 00 00 00 00 00 00 00 00 00 00 00 00 00 
     366.  04:9A50  00 00 00 00 00 00 00 00 00 00 00 00 00 00 00 00 
     367.  04:9A60                          db 0x00,0x00,0x00,0x00,0x00,0x00,0x00,0x00,0x00,0x00,0x00,0x00,0x00,0x00,0x00,0x00,0x00,0x00,0x00,0x00,0x00,0x00,0x00,0x00,0x00,0x00,0x00,0x00,0x00,0x00,0x00,0x00
     367.  04:9A60  00 00 00 00 00 00 00 00 00 00 00 00 00 00 00 00 
     367.  04:9A70  00 00 00 00 00 00 00 00 00 00 00 00 00 00 00 00 
     368.  04:9A80                          db 0x00,0x00,0x00,0x00,0x00,0x00,0x00,0x00,0x00,0x00,0x00,0x00,0x00,0x00,0x00,0x00,0x00,0x00,0x00,0x00,0x00,0x00,0x00,0x00,0x00,0x00,0x00,0x00,0x00,0x00,0x00,0x00
     368.  04:9A80  00 00 00 00 00 00 00 00 00 00 00 00 00 00 00 00 
     368.  04:9A90  00 00 00 00 00 00 00 00 00 00 00 00 00 00 00 00 
     369.  04:9AA0                          db 0x00,0x00,0x00,0x00,0x00,0x00,0x00,0x00,0x00,0x00,0x00,0x00,0x00,0x00,0x00,0x00,0x00,0x00,0x00,0x00,0x00,0x00,0x00,0x00,0x00,0x00,0x00,0x00,0x00,0x00,0x00,0x00
     369.  04:9AA0  00 00 00 00 00 00 00 00 00 00 00 00 00 00 00 00 
     369.  04:9AB0  00 00 00 00 00 00 00 00 00 00 00 00 00 00 00 00 
     370.  04:9AC0                          db 0x00,0x00,0x00,0x00,0x00,0x00,0x00,0x00,0x00,0x00,0x00,0x00,0x00,0x00,0x00,0x00,0x00,0x00,0x00,0x00,0x00,0x00,0x00,0x00,0x00,0x00,0x00,0x00,0x00,0x00,0x00,0x00
     370.  04:9AC0  00 00 00 00 00 00 00 00 00 00 00 00 00 00 00 00 
     370.  04:9AD0  00 00 00 00 00 00 00 00 00 00 00 00 00 00 00 00 
     371.  04:9AE0                          db 0x00,0x00,0x00,0x00,0x00,0x00,0x00,0x00,0x00,0x00,0x00,0x00,0x00,0x00,0x00,0x00,0x00,0x00,0x00,0x00,0x00,0x00,0x00,0x00,0x00,0x00,0x00,0x00,0x00,0x00,0x00,0x00
     371.  04:9AE0  00 00 00 00 00 00 00 00 00 00 00 00 00 00 00 00 
     371.  04:9AF0  00 00 00 00 00 00 00 00 00 00 00 00 00 00 00 00 
     372.  04:9B00                          db 0x00,0x00,0x00,0x00,0x00,0x00,0x00,0x00,0x00,0x00,0x00,0x00,0x00,0x00,0x00,0x00,0x00,0x00,0x00,0x00,0x00,0x00,0x00,0x00,0x00,0x00,0x00,0x00,0x00,0x00,0x00,0x00
     372.  04:9B00  00 00 00 00 00 00 00 00 00 00 00 00 00 00 00 00 
     372.  04:9B10  00 00 00 00 00 00 00 00 00 00 00 00 00 00 00 00 
     373.  04:9B20                          db 0x00,0x00,0x00,0x00,0x00,0x00,0x00,0x00,0x00,0x00,0x00,0x00,0x00,0x00,0x00,0x00,0x00,0x00,0x00,0x00,0x00,0x00,0x00,0x00,0x00,0x00,0x00,0x00,0x00,0x00,0x00,0x00
     373.  04:9B20  00 00 00 00 00 00 00 00 00 00 00 00 00 00 00 00 
     373.  04:9B30  00 00 00 00 00 00 00 00 00 00 00 00 00 00 00 00 
     374.  04:9B40                          db 0x00,0x00,0x00,0x00,0x00,0x00,0x00,0x00,0x00,0x00,0x00,0x00,0x00,0x00,0x00,0x00,0x00,0x00,0x00,0x00,0x00,0x00,0x00,0x00,0x00,0x00,0x00,0x00,0x00,0x00,0x00,0x00
     374.  04:9B40  00 00 00 00 00 00 00 00 00 00 00 00 00 00 00 00 
     374.  04:9B50  00 00 00 00 00 00 00 00 00 00 00 00 00 00 00 00 
     375.  04:9B60                          db 0x00,0x00,0xFF,0xFF,0xFF,0x00,0x01,0x00,0x00,0xFF,0xFF,0x00,0x00,0x00,0x00,0x00,0x00,0xFF,0x00,0x01,0x01,0x01,0x00,0xFF,0xFF,0x00,0x00,0x00,0x00,0x00,0x00,0xFF
     375.  04:9B60  00 00 FF FF FF 00 01 00 00 FF FF 00 00 00 00 00 
     375.  04:9B70  00 FF 00 01 01 01 00 FF FF 00 00 00 00 00 00 FF 
     376.  04:9B80                          db 0xFE,0x00,0xFF,0xFD,0xFC,0x02,0x05,0x01,0xFE,0xFE,0x00,0x00,0xFD,0x00,0x04,0x02,0xFF,0xFD,0xFF,0x00,0x00,0x01,0x02,0x00,0xFE,0xFE,0xFF,0xFF,0x00,0x03,0x04,0x00
     376.  04:9B80  FE 00 FF FD FC 02 05 01 FE FE 00 00 FD 00 04 02 
     376.  04:9B90  FF FD FF 00 00 01 02 00 FE FE FF FF 00 03 04 00 
     377.  04:9BA0                          db 0x00,0xFF,0x00,0x00,0x01,0x03,0x02,0x01,0x02,0x01,0x02,0x01,0xFF,0x01,0x02,0x01,0xFF,0x00,0x03,0x02,0x01,0x00,0xFE,0xFE,0xFC,0xFE,0xFD,0xFE,0x01,0xFF,0x02,0x02
     377.  04:9BA0  00 FF 00 00 01 03 02 01 02 01 02 01 FF 01 02 01 
     377.  04:9BB0  FF 00 03 02 01 00 FE FE FC FE FD FE 01 FF 02 02 
     378.  04:9BC0                          db 0xED,0xF5,0xFE,0x00,0x12,0x26,0x22,0x15,0x18,0x1B,0x1A,0x27,0x33,0x2E,0x22,0x1F,0x17,0x0C,0x07,0x01,0xF2,0xDF,0xD4,0xDC,0xCE,0xCD,0xD7,0xD5,0xDC,0xF4,0x07,0xFB
     378.  04:9BC0  ED F5 FE 00 12 26 22 15 18 1B 1A 27 33 2E 22 1F 
     378.  04:9BD0  17 0C 07 01 F2 DF D4 DC CE CD D7 D5 DC F4 07 FB 
     379.  04:9BE0                          db 0xF6,0xE0,0xDE,0xEB,0x14,0x3D,0x3F,0x1E,0x04,0x00,0x0C,0x21,0x38,0x42,0x38,0x23,0x1B,0x1B,0x1E,0x13,0xF5,0xD9,0xD3,0xD1,0xC1,0xAF,0xA8,0x95,0xA3,0xFC,0x50,0x2B
     379.  04:9BE0  F6 E0 DE EB 14 3D 3F 1E 04 00 0C 21 38 42 38 23 
     379.  04:9BF0  1B 1B 1E 13 F5 D9 D3 D1 C1 AF A8 95 A3 FC 50 2B 
     380.  04:9C00                          db 0xD5,0xC1,0xE1,0x00,0x0D,0x3A,0x47,0x22,0xF5,0xF5,0x07,0x17,0x2B,0x47,0x49,0x29,0x0A,0x09,0x10,0x0F,0xF6,0xDF,0xDC,0xD8,0xBE,0x9F,0x96,0x93,0xC6,0x3E,0x7A,0x39
     380.  04:9C00  D5 C1 E1 00 0D 3A 47 22 F5 F5 07 17 2B 47 49 29 
     380.  04:9C10  0A 09 10 0F F6 DF DC D8 BE 9F 96 93 C6 3E 7A 39 
     381.  04:9C20                          db 0xED,0xC6,0xDE,0x00,0x0E,0x16,0x28,0x31,0x1D,0xFE,0xF6,0x10,0x2C,0x3A,0x39,0x2D,0x18,0x09,0x07,0x0B,0xFF,0xE3,0xCE,0xCC,0xCA,0xB7,0x9F,0x8E,0xC7,0x33,0x72,0x45
     381.  04:9C20  ED C6 DE 00 0E 16 28 31 1D FE F6 10 2C 3A 39 2D 
     381.  04:9C30  18 09 07 0B FF E3 CE CC CA B7 9F 8E C7 33 72 45 
     382.  04:9C40                          db 0xD4,0xCA,0xF2,0x15,0x15,0x0C,0x19,0x2E,0x26,0x04,0xF0,0x07,0x2E,0x3F,0x32,0x1E,0x15,0x0F,0x07,0xFE,0xED,0xDE,0xD1,0xC9,0xBB,0xAD,0x9B,0xAD,0xFF,0x58,0x64,0x1E
     382.  04:9C40  D4 CA F2 15 15 0C 19 2E 26 04 F0 07 2E 3F 32 1E 
     382.  04:9C50  15 0F 07 FE ED DE D1 C9 BB AD 9B AD FF 58 64 1E 
     383.  04:9C60                          db 0xD4,0xDC,0x05,0x1E,0x14,0x03,0x09,0x22,0x2F,0x1F,0x04,0xFE,0x17,0x35,0x37,0x1B,0xFF,0xFA,0x00,0xF8,0xDF,0xCA,0xC4,0xC6,0xC4,0xB2,0xAB,0xD7,0x27,0x5C,0x48,0x05
     383.  04:9C60  D4 DC 05 1E 14 03 09 22 2F 1F 04 FE 17 35 37 1B 
     383.  04:9C70  FF FA 00 F8 DF CA C4 C6 C4 B2 AB D7 27 5C 48 05 
     384.  04:9C80                          db 0xEA,0xE4,0xFA,0x10,0x13,0x0B,0x09,0x17,0x28,0x29,0x1B,0x0F,0x11,0x1F,0x25,0x1A,0x03,0xF2,0xEC,0xE9,0xDE,0xCD,0xBC,0xB5,0xB5,0xC2,0xE2,0x12,0x2D,0x49,0x3C,0x10
     384.  04:9C80  EA E4 FA 10 13 0B 09 17 28 29 1B 0F 11 1F 25 1A 
     384.  04:9C90  03 F2 EC E9 DE CD BC B5 B5 C2 E2 12 2D 49 3C 10 
     385.  04:9CA0                          db 0xF9,0xF9,0x05,0x0C,0x0B,0x06,0x07,0x12,0x21,0x29,0x25,0x1E,0x1A,0x1B,0x1A,0x11,0x03,0xF4,0xE7,0xDF,0xD9,0xD1,0xC8,0xBC,0xB5,0xBD,0xDD,0x0C,0x32,0x3D,0x2B,0x0D
     385.  04:9CA0  F9 F9 05 0C 0B 06 07 12 21 29 25 1E 1A 1B 1A 11 
     385.  04:9CB0  03 F4 E7 DF D9 D1 C8 BC B5 BD DD 0C 32 3D 2B 0D 
     386.  04:9CC0                          db 0x07,0x09,0x0D,0x0F,0x0D,0x0B,0x0B,0x0F,0x15,0x18,0x19,0x18,0x16,0x14,0x10,0x09,0xFE,0xEF,0xE6,0xE2,0xE0,0xDE,0xDA,0xD5,0xD1,0xD4,0xE1,0xF5,0x08,0x12,0x11,0x0B
     386.  04:9CC0  07 09 0D 0F 0D 0B 0B 0F 15 18 19 18 16 14 10 09 
     386.  04:9CD0  FE EF E6 E2 E0 DE DA D5 D1 D4 E1 F5 08 12 11 0B 
     387.  04:9CE0                          db 0x02,0x03,0x02,0x04,0x02,0x01,0x02,0x03,0x02,0x03,0x04,0x02,0x00,0x00,0xFF,0xFE,0x00,0x00,0xFE,0xFD,0xFD,0xFE,0xFE,0xFF,0xFE,0xFC,0xFE,0xFF,0xFE,0xFF,0x00,0x00
     387.  04:9CE0  02 03 02 04 02 01 02 03 02 03 04 02 00 00 FF FE 
     387.  04:9CF0  00 00 FE FD FD FE FE FF FE FC FE FF FE FF 00 00 
     388.  04:9D00                          db 0x00,0x01,0x00,0x00,0x00,0x00,0x00,0x01,0xFF,0x00,0x01,0x01,0x00,0x00,0x00,0x00,0x00,0x00,0x00,0x00,0xFF,0xFF,0x00,0x00,0x00,0x00,0xFF,0x00,0xFF,0x00,0x00,0x00
     388.  04:9D00  00 01 00 00 00 00 00 01 FF 00 01 01 00 00 00 00 
     388.  04:9D10  00 00 00 00 FF FF 00 00 00 00 FF 00 FF 00 00 00 
     389.  04:9D20                          db 0x00,0x00,0x00,0xFF,0x00,0x00,0x00,0x00,0x01,0x01,0x02,0x01,0x01,0x01,0x00,0x00,0x00,0x00,0xFF,0x00,0xFF,0x00,0x00,0x00,0x00,0x00,0x00,0x00,0x00,0x00,0xFF,0xFF
     389.  04:9D20  00 00 00 FF 00 00 00 00 01 01 02 01 01 01 00 00 
     389.  04:9D30  00 00 FF 00 FF 00 00 00 00 00 00 00 00 00 FF FF 
     390.  04:9D40                          db 0xFF,0x01,0x01,0x01,0xFF,0xFF,0xFF,0xFF,0x00,0x01,0x0B,0x0A,0x04,0xFF,0x00,0x01,0x01,0xFE,0xFA,0xFB,0xFD,0x00,0x00,0xFF,0xFE,0xFC,0xFE,0x00,0x00,0x01,0x01,0x00
     390.  04:9D40  FF 01 01 01 FF FF FF FF 00 01 0B 0A 04 FF 00 01 
     390.  04:9D50  01 FE FA FB FD 00 00 FF FE FC FE 00 00 01 01 00 
     391.  04:9D60                          db 0xFD,0x01,0x01,0x02,0x01,0x00,0x00,0x00,0x01,0x01,0x03,0x03,0x00,0xFE,0xFD,0x01,0x01,0x00,0xFD,0xFC,0xFF,0x01,0x01,0x01,0xFF,0xFE,0xFF,0x00,0x02,0x02,0x01,0xFE
     391.  04:9D60  FD 01 01 02 01 00 00 00 01 01 03 03 00 FE FD 01 
     391.  04:9D70  01 00 FD FC FF 01 01 01 FF FE FF 00 02 02 01 FE 
     392.  04:9D80                          db 0x00,0x00,0x00,0xFF,0x00,0x01,0x00,0x00,0x01,0x01,0x01,0x02,0x01,0xFF,0x00,0x01,0x00,0xFF,0xFF,0xFF,0xFF,0x00,0xFF,0x00,0x02,0x01,0x00,0xFF,0x00,0x00,0xFF,0xFD
     392.  04:9D80  00 00 00 FF 00 01 00 00 01 01 01 02 01 FF 00 01 
     392.  04:9D90  00 FF FF FF FF 00 FF 00 02 01 00 FF 00 00 FF FD 
     393.  04:9DA0                          db 0x00,0x02,0x02,0x02,0x02,0x03,0x03,0x05,0x05,0x06,0x06,0x06,0x06,0x05,0x05,0x05,0x00,0xFF,0xFF,0xFD,0xFC,0xFC,0xFB,0xFC,0xFC,0xFB,0xFC,0xFB,0xFC,0xFD,0xFE,0xFF
     393.  04:9DA0  00 02 02 02 02 03 03 05 05 06 06 06 06 05 05 05 
     393.  04:9DB0  00 FF FF FD FC FC FB FC FC FB FC FB FC FD FE FF 
     394.  04:9DC0                          db 0x06,0x0B,0x0F,0x12,0x14,0x14,0x15,0x16,0x18,0x1A,0x1C,0x1B,0x1A,0x17,0x13,0x0F,0x08,0x01,0xFB,0xF5,0xEE,0xE7,0xE0,0xDC,0xDA,0xDB,0xDF,0xE5,0xEC,0xF4,0xFB,0x01
     394.  04:9DC0  06 0B 0F 12 14 14 15 16 18 1A 1C 1B 1A 17 13 0F 
     394.  04:9DD0  08 01 FB F5 EE E7 E0 DC DA DB DF E5 EC F4 FB 01 
     395.  04:9DE0                          db 0x0D,0x12,0x13,0x13,0x12,0x11,0x10,0x0F,0x0F,0x11,0x15,0x18,0x19,0x16,0x12,0x0F,0x09,0x01,0xF7,0xEE,0xE8,0xE2,0xDF,0xD9,0xD5,0xD6,0xDD,0xE6,0xF0,0xF8,0x00,0x07
     395.  04:9DE0  0D 12 13 13 12 11 10 0F 0F 11 15 18 19 16 12 0F 
     395.  04:9DF0  09 01 F7 EE E8 E2 DF D9 D5 D6 DD E6 F0 F8 00 07 
     396.  04:9E00                          db 0x10,0x17,0x1A,0x19,0x16,0x12,0x0F,0x0C,0x0B,0x0C,0x10,0x14,0x17,0x17,0x14,0x11,0x0D,0x07,0xFF,0xF5,0xEC,0xE4,0xDD,0xD6,0xD0,0xCD,0xD6,0xE1,0xED,0xF7,0x00,0x08
     396.  04:9E00  10 17 1A 19 16 12 0F 0C 0B 0C 10 14 17 17 14 11 
     396.  04:9E10  0D 07 FF F5 EC E4 DD D6 D0 CD D6 E1 ED F7 00 08 
     397.  04:9E20                          db 0x1B,0x1E,0x22,0x23,0x1E,0x13,0x07,0x01,0x02,0x07,0x0D,0x13,0x1A,0x20,0x22,0x1E,0x14,0x0B,0x03,0xFC,0xF1,0xE6,0xDB,0xD4,0xCE,0xC7,0xC5,0xCE,0xE1,0xF8,0x0B,0x15
     397.  04:9E20  1B 1E 22 23 1E 13 07 01 02 07 0D 13 1A 20 22 1E 
     397.  04:9E30  14 0B 03 FC F1 E6 DB D4 CE C7 C5 CE E1 F8 0B 15 
     398.  04:9E40                          db 0x23,0x1F,0x1E,0x1F,0x1C,0x10,0x01,0xF6,0xF7,0xFF,0x09,0x11,0x1A,0x24,0x2D,0x2F,0x26,0x17,0x0A,0x01,0xF9,0xED,0xDF,0xD4,0xCC,0xC7,0xC0,0xB9,0xD2,0xF0,0x0D,0x1F
     398.  04:9E40  23 1F 1E 1F 1C 10 01 F6 F7 FF 09 11 1A 24 2D 2F 
     398.  04:9E50  26 17 0A 01 F9 ED DF D4 CC C7 C0 B9 D2 F0 0D 1F 
     399.  04:9E60                          db 0x40,0x1B,0x0F,0x0E,0x08,0xF9,0xED,0xF4,0x08,0x16,0x17,0x14,0x18,0x23,0x2B,0x2E,0x2B,0x21,0x15,0x0D,0x07,0xFD,0xE9,0xCF,0xBE,0xB8,0xAF,0xA5,0xA7,0xD9,0x28,0x54
     399.  04:9E60  40 1B 0F 0E 08 F9 ED F4 08 16 17 14 18 23 2B 2E 
     399.  04:9E70  2B 21 15 0D 07 FD E9 CF BE B8 AF A5 A7 D9 28 54 
     400.  04:9E80                          db 0x52,0x0E,0xE6,0xE0,0xDC,0xE4,0x0E,0x3C,0x3F,0x1D,0x03,0xFD,0xFB,0xF8,0x0E,0x3B,0x54,0x40,0x1C,0x0D,0x0B,0x02,0xEE,0xD3,0xC2,0xC0,0xBB,0xAC,0x9E,0xB3,0x0E,0x5C
     400.  04:9E80  52 0E E6 E0 DC E4 0E 3C 3F 1D 03 FD FB F8 0E 3B 
     400.  04:9E90  54 40 1C 0D 0B 02 EE D3 C2 C0 BB AC 9E B3 0E 5C 
     401.  04:9EA0                          db 0x5B,0x09,0xE4,0xD9,0xCF,0xE4,0x23,0x4C,0x38,0x13,0x01,0xF8,0xEB,0xF8,0x1F,0x49,0x51,0x3B,0x22,0x0D,0x01,0xFB,0x01,0xEA,0xC8,0xBF,0xC1,0xAC,0x97,0x99,0x06,0x68
     401.  04:9EA0  5B 09 E4 D9 CF E4 23 4C 38 13 01 F8 EB F8 1F 49 
     401.  04:9EB0  51 3B 22 0D 01 FB 01 EA C8 BF C1 AC 97 99 06 68 
     402.  04:9EC0                          db 0x3F,0xF5,0xDA,0xC9,0xC7,0x04,0x4B,0x50,0x22,0x06,0xF8,0xEB,0xEC,0x12,0x35,0x49,0x46,0x34,0x17,0x04,0x02,0x06,0xFB,0xD4,0xC5,0xCC,0xB8,0x9E,0x89,0xB5,0x39,0x75
     402.  04:9EC0  3F F5 DA C9 C7 04 4B 50 22 06 F8 EB EC 12 35 49 
     402.  04:9ED0  46 34 17 04 02 06 FB D4 C5 CC B8 9E 89 B5 39 75 
     403.  04:9EE0                          db 0x17,0xE5,0xCD,0xB7,0xDB,0x31,0x5D,0x41,0x15,0x02,0xE5,0xE0,0xFE,0x2E,0x43,0x4B,0x3B,0x22,0x09,0x09,0x0A,0x09,0xED,0xCC,0xC5,0xC6,0xA7,0x97,0x8C,0xE8,0x61,0x67
     403.  04:9EE0  17 E5 CD B7 DB 31 5D 41 15 02 E5 E0 FE 2E 43 4B 
     403.  04:9EF0  3B 22 09 09 0A 09 ED CC C5 C6 A7 97 8C E8 61 67 
     404.  04:9F00                          db 0x28,0xF1,0xD6,0xAF,0xCA,0x28,0x5C,0x44,0x22,0x0A,0xE8,0xDE,0xF9,0x22,0x3D,0x50,0x45,0x28,0x0B,0x07,0x04,0x05,0xF7,0xD6,0xC5,0xCA,0xB0,0x95,0x81,0xCB,0x57,0x6E
     404.  04:9F00  28 F1 D6 AF CA 28 5C 44 22 0A E8 DE F9 22 3D 50 
     404.  04:9F10  45 28 0B 07 04 05 F7 D6 C5 CA B0 95 81 CB 57 6E 
     405.  04:9F20                          db 0x10,0xF3,0xCF,0xB4,0xE3,0x38,0x4D,0x35,0x22,0x0E,0xE4,0xE1,0x02,0x2A,0x41,0x51,0x3E,0x1D,0x02,0x03,0x01,0x04,0xEF,0xD3,0xC0,0xBD,0xAB,0x95,0x8B,0xFC,0x64,0x59
     405.  04:9F20  10 F3 CF B4 E3 38 4D 35 22 0E E4 E1 02 2A 41 51 
     405.  04:9F30  3E 1D 02 03 01 04 EF D3 C0 BD AB 95 8B FC 64 59 
     406.  04:9F40                          db 0x1E,0xFB,0xBE,0xD7,0x1D,0x3D,0x38,0x2B,0x1E,0xFD,0xE5,0xF3,0x17,0x37,0x49,0x44,0x2D,0x14,0x01,0xFC,0xFF,0xF2,0xDD,0xD0,0xC7,0xB1,0x98,0x91,0xCC,0x17,0x3D,0x33
     406.  04:9F40  1E FB BE D7 1D 3D 38 2B 1E FD E5 F3 17 37 49 44 
     406.  04:9F50  2D 14 01 FC FF F2 DD D0 C7 B1 98 91 CC 17 3D 33 
     407.  04:9F60                          db 0x0E,0xFE,0xEE,0xF4,0x09,0x15,0x16,0x21,0x1D,0x0E,0x00,0x04,0x17,0x27,0x2C,0x27,0x1B,0x0D,0x06,0x05,0xFC,0xF0,0xE7,0xDB,0xC8,0xB7,0xAB,0xB2,0xEA,0x21,0x28,0x18
     407.  04:9F60  0E FE EE F4 09 15 16 21 1D 0E 00 04 17 27 2C 27 
     407.  04:9F70  1B 0D 06 05 FC F0 E7 DB C8 B7 AB B2 EA 21 28 18 
     408.  04:9F80                          db 0x08,0x0A,0x0B,0x0D,0x0E,0x0E,0x0E,0x0F,0x11,0x10,0x0D,0x0C,0x0B,0x0B,0x0C,0x0A,0x07,0x05,0x02,0xFD,0xF9,0xF4,0xEE,0xE9,0xE8,0xEB,0xEC,0xED,0xF1,0xF5,0xFD,0x03
     408.  04:9F80  08 0A 0B 0D 0E 0E 0E 0F 11 10 0D 0C 0B 0B 0C 0A 
     408.  04:9F90  07 05 02 FD F9 F4 EE E9 E8 EB EC ED F1 F5 FD 03 
     409.  04:9FA0                          db 0xFD,0x00,0x02,0x03,0x05,0x07,0x08,0x09,0x09,0x09,0x09,0x09,0x09,0x09,0x08,0x08,0x02,0x00,0xFD,0xF9,0xF7,0xF4,0xF3,0xF4,0xF3,0xF2,0xF3,0xF6,0xF7,0xF8,0xF9,0xFB
     409.  04:9FA0  FD 00 02 03 05 07 08 09 09 09 09 09 09 09 08 08 
     409.  04:9FB0  02 00 FD F9 F7 F4 F3 F4 F3 F2 F3 F6 F7 F8 F9 FB 
     410.  04:9FC0                          db 0x09,0x0B,0x0B,0x0A,0x09,0x08,0x08,0x09,0x09,0x0A,0x09,0x08,0x09,0x09,0x09,0x06,0x07,0x06,0x03,0x01,0xFD,0xF8,0xF4,0xEF,0xEA,0xE4,0xE1,0xE6,0xF2,0xFA,0xFD,0x03
     410.  04:9FC0  09 0B 0B 0A 09 08 08 09 09 0A 09 08 09 09 09 06 
     410.  04:9FD0  07 06 03 01 FD F8 F4 EF EA E4 E1 E6 F2 FA FD 03 
     411.  04:9FE0                          db 0x0B,0x0E,0x0A,0x05,0x05,0x07,0x04,0x04,0x08,0x0D,0x0E,0x0C,0x0B,0x0A,0x0B,0x0C,0x09,0x07,0x06,0x03,0xFD,0xF6,0xF1,0xEB,0xE3,0xDA,0xD4,0xDC,0xF2,0x03,0x07,0x07
     411.  04:9FE0  0B 0E 0A 05 05 07 04 04 08 0D 0E 0C 0B 0A 0B 0C 
     411.  04:9FF0  09 07 06 03 FD F6 F1 EB E3 DA D4 DC F2 03 07 07 
     412.  04:A000                          db 0xFD,0x03,0x02,0xF3,0xF2,0x08,0x1A,0x17,0x0C,0x0C,0x14,0x17,0x16,0x17,0x18,0x16,0x15,0x10,0x05,0xFA,0xF4,0xEF,0xE5,0xD8,0xCA,0xB9,0xB2,0xBC,0xEC,0x23,0x2C,0x0F
     412.  04:A000  FD 03 02 F3 F2 08 1A 17 0C 0C 14 17 16 17 18 16 
     412.  04:A010  15 10 05 FA F4 EF E5 D8 CA B9 B2 BC EC 23 2C 0F 
     413.  04:A020                          db 0xF4,0xE6,0xF5,0xFB,0xF1,0xF1,0x0D,0x28,0x26,0x10,0x04,0x0F,0x20,0x22,0x18,0x14,0x19,0x18,0x0A,0xF5,0xE9,0xE8,0xE9,0xE2,0xD1,0xC0,0xB0,0xB8,0xF2,0x38,0x4F,0x28
     413.  04:A020  F4 E6 F5 FB F1 F1 0D 28 26 10 04 0F 20 22 18 14 
     413.  04:A030  19 18 0A F5 E9 E8 E9 E2 D1 C0 B0 B8 F2 38 4F 28 
     414.  04:A040                          db 0xEC,0xEC,0xF8,0xF6,0xEE,0xF9,0x18,0x2C,0x21,0x0B,0x05,0x13,0x20,0x1F,0x17,0x15,0x19,0x15,0x02,0xED,0xE6,0xEA,0xED,0xE1,0xCC,0xB5,0xAA,0xCB,0x12,0x49,0x43,0x12
     414.  04:A040  EC EC F8 F6 EE F9 18 2C 21 0B 05 13 20 1F 17 15 
     414.  04:A050  19 15 02 ED E6 EA ED E1 CC B5 AA CB 12 49 43 12 
     415.  04:A060                          db 0xF6,0xEF,0xF9,0xF9,0xED,0xF2,0x10,0x2B,0x2A,0x15,0x09,0x10,0x1B,0x1B,0x14,0x15,0x1C,0x18,0x03,0xED,0xE4,0xE8,0xEC,0xE3,0xD0,0xBC,0xB1,0xC8,0x02,0x39,0x40,0x1C
     415.  04:A060  F6 EF F9 F9 ED F2 10 2B 2A 15 09 10 1B 1B 14 15 
     415.  04:A070  1C 18 03 ED E4 E8 EC E3 D0 BC B1 C8 02 39 40 1C 
     416.  04:A080                          db 0xFC,0xF7,0xFB,0xF6,0xEE,0xF6,0x0F,0x27,0x2A,0x1E,0x14,0x14,0x16,0x11,0x0D,0x13,0x1C,0x19,0x04,0xEC,0xE1,0xE4,0xE3,0xD8,0xC8,0xBB,0xBB,0xDA,0x0F,0x36,0x34,0x15
     416.  04:A080  FC F7 FB F6 EE F6 0F 27 2A 1E 14 14 16 11 0D 13 
     416.  04:A090  1C 19 04 EC E1 E4 E3 D8 C8 BB BB DA 0F 36 34 15 
     417.  04:A0A0                          db 0x08,0x00,0xFF,0xFC,0xF7,0xF9,0x08,0x1A,0x23,0x20,0x1A,0x17,0x15,0x10,0x0B,0x0D,0x14,0x14,0x08,0xF7,0xEB,0xE3,0xDA,0xCF,0xC6,0xC6,0xD0,0xE7,0x06,0x1D,0x21,0x14
     417.  04:A0A0  08 00 FF FC F7 F9 08 1A 23 20 1A 17 15 10 0B 0D 
     417.  04:A0B0  14 14 08 F7 EB E3 DA CF C6 C6 D0 E7 06 1D 21 14 
     418.  04:A0C0                          db 0x06,0x05,0x08,0x0B,0x0D,0x0E,0x11,0x15,0x17,0x15,0x12,0x10,0x0D,0x0A,0x08,0x0B,0x0A,0x06,0xFE,0xF5,0xED,0xE6,0xDE,0xD9,0xDA,0xDF,0xE7,0xEF,0xF8,0x02,0x08,0x08
     418.  04:A0C0  06 05 08 0B 0D 0E 11 15 17 15 12 10 0D 0A 08 0B 
     418.  04:A0D0  0A 06 FE F5 ED E6 DE D9 DA DF E7 EF F8 02 08 08 
     419.  04:A0E0                          db 0xFE,0x01,0x04,0x09,0x0D,0x0F,0x0F,0x10,0x11,0x11,0x0F,0x0D,0x0B,0x09,0x06,0x03,0x02,0x01,0xFE,0xF8,0xF4,0xF3,0xF2,0xF1,0xF0,0xF1,0xF4,0xF7,0xF8,0xF8,0xFA,0xFC
     419.  04:A0E0  FE 01 04 09 0D 0F 0F 10 11 11 0F 0D 0B 09 06 03 
     419.  04:A0F0  02 01 FE F8 F4 F3 F2 F1 F0 F1 F4 F7 F8 F8 FA FC 
     420.  04:A100                          db 0xFF,0x00,0x01,0x02,0x03,0x03,0x03,0x03,0x03,0x03,0x03,0x02,0x01,0x01,0x00,0xFF,0xFF,0xFF,0xFF,0xFE,0xFF,0xFE,0xFB,0xFA,0xFA,0xF9,0xF9,0xFB,0xFD,0xFD,0xFE,0xFF
     420.  04:A100  FF 00 01 02 03 03 03 03 03 03 03 02 01 01 00 FF 
     420.  04:A110  FF FF FF FE FF FE FB FA FA F9 F9 FB FD FD FE FF 
     421.  04:A120                          db 0x00,0x00,0x00,0x00,0x00,0x00,0x00,0x00,0x00,0x00,0x00,0x00,0x00,0x00,0x00,0x00,0x00,0x00,0x00,0x00,0x00,0x00,0x00,0x00,0x00,0x00,0x00,0x00,0x00,0x00,0x00,0x00
     421.  04:A120  00 00 00 00 00 00 00 00 00 00 00 00 00 00 00 00 
     421.  04:A130  00 00 00 00 00 00 00 00 00 00 00 00 00 00 00 00 
     422.  04:A140                          db 0x00,0x00,0x00,0x00,0x00,0x00,0x00,0x00,0x00,0x00,0x00,0x00,0x00,0x00,0x00,0x00,0x00,0x00,0x00,0x00,0x00,0x00,0x00,0x00,0x00,0x00,0x00,0x00,0x00,0x00,0x00,0x00
     422.  04:A140  00 00 00 00 00 00 00 00 00 00 00 00 00 00 00 00 
     422.  04:A150  00 00 00 00 00 00 00 00 00 00 00 00 00 00 00 00 
     423.  04:A160                          db 0x00,0x00,0x00,0x00,0x00,0x00,0x00,0x00,0x00,0x00,0x00,0x00,0x00,0x00,0x00,0x00,0x00,0x00,0x00,0x00,0x00,0x00,0x00,0x00,0x00,0x00,0x00,0x00,0x00,0x00,0x00,0x00
     423.  04:A160  00 00 00 00 00 00 00 00 00 00 00 00 00 00 00 00 
     423.  04:A170  00 00 00 00 00 00 00 00 00 00 00 00 00 00 00 00 
     424.  04:A180                          db 0x00,0x00,0x00,0x00,0x00,0x00,0x00,0x00,0x00,0x00,0x00,0x00,0x00,0x00,0x00,0x00,0x00,0x00,0x00,0x00,0x00,0x00,0x00,0x00,0x00,0x00,0x00,0x00,0x00,0x00,0x00,0x00
     424.  04:A180  00 00 00 00 00 00 00 00 00 00 00 00 00 00 00 00 
     424.  04:A190  00 00 00 00 00 00 00 00 00 00 00 00 00 00 00 00 
     425.  04:A1A0                          db 0x00,0x00,0x00,0x00,0x00,0x00,0x00,0x00,0x00,0x00,0x00,0x00,0x00,0x00,0x00,0x00,0x00,0x00,0x00,0x00,0x00,0x00,0x00,0x00,0x00,0x00,0x00,0x00,0x00,0x00,0x00,0x00
     425.  04:A1A0  00 00 00 00 00 00 00 00 00 00 00 00 00 00 00 00 
     425.  04:A1B0  00 00 00 00 00 00 00 00 00 00 00 00 00 00 00 00 
     426.  04:A1C0                          db 0x00,0x00,0x00,0x00,0x00,0x00,0x00,0x00,0x00,0x00,0x00,0x00,0x00,0x00,0x00,0x00,0x00,0x00,0x00,0x00,0x00,0x00,0x00,0x00,0x00,0x00,0x00,0x00,0x00,0x00,0x00,0x00
     426.  04:A1C0  00 00 00 00 00 00 00 00 00 00 00 00 00 00 00 00 
     426.  04:A1D0  00 00 00 00 00 00 00 00 00 00 00 00 00 00 00 00 
     427.  04:A1E0                          db 0x00,0x00,0x00,0x00,0x00,0x00,0x00,0x00,0x00,0x00,0x00,0x00,0x00,0x00,0x00,0x00,0x00,0x00,0x00,0x00,0x00,0x00,0x00,0x00,0x00,0x00,0x00,0x00,0x00,0x00,0x00,0x00
     427.  04:A1E0  00 00 00 00 00 00 00 00 00 00 00 00 00 00 00 00 
     427.  04:A1F0  00 00 00 00 00 00 00 00 00 00 00 00 00 00 00 00 
     428.  04:A200                          db 0x00,0x00,0x00,0x00,0x00,0x00,0x00,0x00,0x00,0x00,0x00,0x00,0x00,0x00,0x00,0x00,0x00,0x00,0x00,0x00,0x00,0x00,0x00,0x00,0x00,0x00,0x00,0x00,0x00,0x00,0x00,0x00
     428.  04:A200  00 00 00 00 00 00 00 00 00 00 00 00 00 00 00 00 
     428.  04:A210  00 00 00 00 00 00 00 00 00 00 00 00 00 00 00 00 
     429.  04:A220                          db 0x00,0x00,0x00,0x00,0x00,0x00,0x00,0x00,0x00,0x00,0x00,0x00,0x00,0x00,0x00,0x00,0x00,0x00,0x00,0x00,0x00,0x00,0x00,0x00,0x00,0x00,0x00,0x00,0x00,0x00,0x00,0x00
     429.  04:A220  00 00 00 00 00 00 00 00 00 00 00 00 00 00 00 00 
     429.  04:A230  00 00 00 00 00 00 00 00 00 00 00 00 00 00 00 00 
     430.  04:A240                          db 0x00,0x00,0x00,0x00,0x00,0x00,0x00,0x00,0x00,0x00,0x00,0x00,0x00,0x00,0x00,0x00,0x00,0x00,0x00,0x00,0x00,0x00,0x00,0x00,0x00,0x00,0x00,0x00,0x00,0x00,0x00,0x00
     430.  04:A240  00 00 00 00 00 00 00 00 00 00 00 00 00 00 00 00 
     430.  04:A250  00 00 00 00 00 00 00 00 00 00 00 00 00 00 00 00 
     431.  04:A260                          db 0x00,0x00,0x00,0x00,0x00,0x00,0x00,0x00,0x00,0x00,0x00,0x00,0x00,0x00,0x00,0x00,0x00,0x00,0x00,0x00,0x00,0x00,0x00,0x00,0x00,0x00,0x00,0x00,0x00,0x00,0x00,0x00
     431.  04:A260  00 00 00 00 00 00 00 00 00 00 00 00 00 00 00 00 
     431.  04:A270  00 00 00 00 00 00 00 00 00 00 00 00 00 00 00 00 
     432.  04:A280                          db 0x00,0x00,0x00,0x00,0x00,0x00,0x00,0x00,0x00,0x00,0x00,0x00,0x00,0x00,0x00,0x00,0x00,0x00,0x00,0x00,0x00,0x00,0x00,0x00,0x00,0x00,0x00,0x00,0x00,0x00,0x00,0x00
     432.  04:A280  00 00 00 00 00 00 00 00 00 00 00 00 00 00 00 00 
     432.  04:A290  00 00 00 00 00 00 00 00 00 00 00 00 00 00 00 00 
     433.  04:A2A0                          db 0x00,0x00,0x00,0x00,0x00,0x00,0x00,0x00,0x00,0x00,0x00,0x00,0x00,0x00,0x00,0x00,0x00,0x00,0x00,0x00,0x00,0x00,0x00,0x00,0x00,0x00,0x00,0x00,0x00,0x00,0x00,0x00
     433.  04:A2A0  00 00 00 00 00 00 00 00 00 00 00 00 00 00 00 00 
     433.  04:A2B0  00 00 00 00 00 00 00 00 00 00 00 00 00 00 00 00 
     434.  04:A2C0                          db 0x00,0x00,0x00,0x00,0x00,0x00,0x00,0x00,0x00,0x00,0x00,0x00,0x00,0x00,0x00,0x00,0x00,0x00,0x00,0x00,0x00,0x00,0x00,0x00,0x00,0x00,0x00,0x00,0x00,0x00,0x00,0x00
     434.  04:A2C0  00 00 00 00 00 00 00 00 00 00 00 00 00 00 00 00 
     434.  04:A2D0  00 00 00 00 00 00 00 00 00 00 00 00 00 00 00 00 
     435.  04:A2E0                          db 0x05,0x06,0x06,0x07,0x07,0x06,0x05,0x04,0x02,0x01,0x00,0x00,0xFF,0xFF,0xFF,0xFF,0xFF,0xFF,0xFF,0xFF,0xFE,0xFD,0xFD,0xFB,0xFA,0xFA,0xFA,0xFC,0xFD,0xFF,0x01,0x02
     435.  04:A2E0  05 06 06 07 07 06 05 04 02 01 00 00 FF FF FF FF 
     435.  04:A2F0  FF FF FF FF FE FD FD FB FA FA FA FC FD FF 01 02 
     436.  04:A300                          db 0x0C,0x0F,0x11,0x13,0x13,0x12,0x0F,0x0C,0x08,0x06,0x05,0x04,0x03,0x02,0x02,0x01,0x00,0xFF,0xFC,0xF8,0xF4,0xF0,0xEC,0xEE,0xED,0xED,0xF0,0xF5,0xFB,0x01,0x06,0x09
     436.  04:A300  0C 0F 11 13 13 12 0F 0C 08 06 05 04 03 02 02 01 
     436.  04:A310  00 FF FC F8 F4 F0 EC EE ED ED F0 F5 FB 01 06 09 
     437.  04:A320                          db 0x17,0x1E,0x25,0x28,0x25,0x1E,0x14,0x0D,0x0A,0x08,0x07,0x06,0x05,0x06,0x08,0x09,0x07,0x01,0xF9,0xF2,0xEB,0xE4,0xDE,0xD6,0xD1,0xD1,0xD8,0xE6,0xF5,0x02,0x0B,0x11
     437.  04:A320  17 1E 25 28 25 1E 14 0D 0A 08 07 06 05 06 08 09 
     437.  04:A330  07 01 F9 F2 EB E4 DE D6 D1 D1 D8 E6 F5 02 0B 11 
     438.  04:A340                          db 0x17,0x21,0x28,0x28,0x25,0x20,0x17,0x15,0x13,0x0E,0x0A,0x07,0x08,0x09,0x08,0x03,0xFC,0xF5,0xF0,0xEC,0xE7,0xE0,0xD7,0xD0,0xCE,0xD4,0xDE,0xEA,0xF5,0xFD,0x04,0x0D
     438.  04:A340  17 21 28 28 25 20 17 15 13 0E 0A 07 08 09 08 03 
     438.  04:A350  FC F5 F0 EC E7 E0 D7 D0 CE D4 DE EA F5 FD 04 0D 
     439.  04:A360                          db 0x21,0x26,0x28,0x26,0x20,0x18,0x10,0x0A,0x06,0x05,0x07,0x0A,0x0E,0x12,0x14,0x13,0x0F,0x07,0xFD,0xF1,0xE6,0xD6,0xCE,0xCA,0xCB,0xD1,0xDC,0xE9,0xF7,0x04,0x0F,0x19
     439.  04:A360  21 26 28 26 20 18 10 0A 06 05 07 0A 0E 12 14 13 
     439.  04:A370  0F 07 FD F1 E6 D6 CE CA CB D1 DC E9 F7 04 0F 19 
     440.  04:A380                          db 0x2A,0x30,0x32,0x25,0x1A,0x0F,0x07,0x03,0x03,0x05,0x09,0x0F,0x17,0x1E,0x21,0x1E,0x15,0x08,0xF8,0xE8,0xD9,0xCB,0xBF,0xB5,0xB2,0xB9,0xCB,0xE2,0xFA,0x0C,0x19,0x21
     440.  04:A380  2A 30 32 25 1A 0F 07 03 03 05 09 0F 17 1E 21 1E 
     440.  04:A390  15 08 F8 E8 D9 CB BF B5 B2 B9 CB E2 FA 0C 19 21 
     441.  04:A3A0                          db 0x27,0x23,0x22,0x21,0x19,0x0B,0xFE,0xFB,0x02,0x0D,0x13,0x17,0x1E,0x27,0x30,0x31,0x27,0x17,0x07,0xF5,0xE2,0xD0,0xC0,0xB2,0xA5,0xA1,0xAD,0xCB,0xF3,0x17,0x2B,0x2D
     441.  04:A3A0  27 23 22 21 19 0B FE FB 02 0D 13 17 1E 27 30 31 
     441.  04:A3B0  27 17 07 F5 E2 D0 C0 B2 A5 A1 AD CB F3 17 2B 2D 
     442.  04:A3C0                          db 0x2D,0x08,0xF7,0xF8,0xF7,0xF2,0xF2,0x02,0x1E,0x2E,0x31,0x27,0x1F,0x23,0x2B,0x29,0x1D,0x12,0x0F,0x0B,0xF9,0xDE,0xCA,0xC1,0xB8,0xA9,0x96,0x99,0xCA,0x16,0x4E,0x52
     442.  04:A3C0  2D 08 F7 F8 F7 F2 F2 02 1E 2E 31 27 1F 23 2B 29 
     442.  04:A3D0  1D 12 0F 0B F9 DE CA C1 B8 A9 96 99 CA 16 4E 52 
     443.  04:A3E0                          db 0x3F,0x12,0xF5,0xE9,0xE6,0xE6,0xF2,0x0D,0x2A,0x38,0x33,0x26,0x1B,0x16,0x17,0x1C,0x20,0x24,0x26,0x20,0x10,0xF2,0xD6,0xC6,0xBE,0xAD,0x9A,0x8E,0xAF,0xF8,0x42,0x59
     443.  04:A3E0  3F 12 F5 E9 E6 E6 F2 0D 2A 38 33 26 1B 16 17 1C 
     443.  04:A3F0  20 24 26 20 10 F2 D6 C6 BE AD 9A 8E AF F8 42 59 
     444.  04:A400                          db 0x4E,0x1D,0xEF,0xDD,0xDA,0xE2,0xF4,0x16,0x36,0x40,0x2F,0x19,0x0C,0x0A,0x0D,0x18,0x29,0x34,0x32,0x26,0x16,0x01,0xE0,0xC8,0xBB,0xB4,0xA6,0x9D,0x9E,0xCC,0x1B,0x56
     444.  04:A400  4E 1D EF DD DA E2 F4 16 36 40 2F 19 0C 0A 0D 18 
     444.  04:A410  29 34 32 26 16 01 E0 C8 BB B4 A6 9D 9E CC 1B 56 
     445.  04:A420                          db 0x51,0x24,0xF3,0xDC,0xDD,0xE5,0xF9,0x1B,0x38,0x39,0x23,0x0F,0x0A,0x0B,0x0B,0x15,0x2E,0x40,0x38,0x24,0x13,0x0A,0xF3,0xD2,0xBF,0xBE,0xBB,0xAD,0xA0,0xB1,0xF9,0x41
     445.  04:A420  51 24 F3 DC DD E5 F9 1B 38 39 23 0F 0A 0B 0B 15 
     445.  04:A430  2E 40 38 24 13 0A F3 D2 BF BE BB AD A0 B1 F9 41 
     446.  04:A440                          db 0x46,0x19,0xF0,0xE2,0xE0,0xEC,0x09,0x2D,0x36,0x2A,0x15,0x0A,0x08,0x0A,0x14,0x2A,0x3C,0x39,0x27,0x1A,0x11,0x05,0xE9,0xCF,0xC9,0xCA,0xBA,0xA6,0xA0,0xB6,0xFD,0x3F
     446.  04:A440  46 19 F0 E2 E0 EC 09 2D 36 2A 15 0A 08 0A 14 2A 
     446.  04:A450  3C 39 27 1A 11 05 E9 CF C9 CA BA A6 A0 B6 FD 3F 
     447.  04:A460                          db 0x2C,0x18,0xFA,0xE5,0xE8,0x00,0x1B,0x26,0x22,0x14,0x06,0x00,0x0A,0x1E,0x30,0x37,0x2F,0x1E,0x11,0x1D,0x13,0x07,0xF9,0xEA,0xDC,0xCE,0xB8,0xA9,0xA6,0xC4,0xFB,0x24
     447.  04:A460  2C 18 FA E5 E8 00 1B 26 22 14 06 00 0A 1E 30 37 
     447.  04:A470  2F 1E 11 1D 13 07 F9 EA DC CE B8 A9 A6 C4 FB 24 
     448.  04:A480                          db 0x43,0x15,0xED,0xD9,0xDC,0xFF,0x28,0x34,0x21,0x08,0xF9,0xF7,0x0B,0x2B,0x3D,0x36,0x23,0x14,0x0E,0x10,0x12,0x09,0xF6,0xE5,0xDD,0xD5,0xC2,0xA3,0x8F,0xAF,0x04,0x47
     448.  04:A480  43 15 ED D9 DC FF 28 34 21 08 F9 F7 0B 2B 3D 36 
     448.  04:A490  23 14 0E 10 12 09 F6 E5 DD D5 C2 A3 8F AF 04 47 
     449.  04:A4A0                          db 0x5D,0x16,0xE4,0xD2,0xCF,0xF1,0x2E,0x44,0x24,0xFF,0xF1,0xEF,0x04,0x2E,0x45,0x36,0x1E,0x0F,0x08,0x0A,0x12,0x13,0x04,0xEF,0xDE,0xD1,0xC3,0xB4,0x9D,0x95,0xE4,0x53
     449.  04:A4A0  5D 16 E4 D2 CF F1 2E 44 24 FF F1 EF 04 2E 45 36 
     449.  04:A4B0  1E 0F 08 0A 12 13 04 EF DE D1 C3 B4 9D 95 E4 53 
     450.  04:A4C0                          db 0x51,0x26,0xEB,0xD7,0xDD,0xF4,0x1B,0x36,0x27,0x06,0xF5,0xF6,0x03,0x2B,0x39,0x29,0x14,0x0A,0x09,0x12,0x1D,0x17,0x05,0xF4,0xEA,0xDD,0xCC,0xBC,0xAE,0xA5,0xCA,0x24
     450.  04:A4C0  51 26 EB D7 DD F4 1B 36 27 06 F5 F6 03 2B 39 29 
     450.  04:A4D0  14 0A 09 12 1D 17 05 F4 EA DD CC BC AE A5 CA 24 
     451.  04:A4E0                          db 0x30,0x3A,0x0B,0xD9,0xE3,0xF6,0x1E,0x39,0x22,0xFD,0xF1,0xF8,0x09,0x22,0x31,0x26,0x12,0x0A,0x0D,0x15,0x1B,0x1B,0x11,0x00,0xEF,0xE0,0xD6,0xCB,0xBB,0xAD,0xB6,0xEE
     451.  04:A4E0  30 3A 0B D9 E3 F6 1E 39 22 FD F1 F8 09 22 31 26 
     451.  04:A4F0  12 0A 0D 15 1B 1B 11 00 EF E0 D6 CB BB AD B6 EE 
     452.  04:A500                          db 0x27,0x52,0x1C,0xE0,0xDA,0xE8,0xFE,0x27,0x38,0x16,0xF0,0xEE,0x00,0x14,0x2D,0x35,0x1A,0x06,0x0A,0x15,0x1B,0x1C,0x13,0x04,0xF4,0xE8,0xDB,0xD3,0xC3,0xAF,0xAA,0xCC
     452.  04:A500  27 52 1C E0 DA E8 FE 27 38 16 F0 EE 00 14 2D 35 
     452.  04:A510  1A 06 0A 15 1B 1C 13 04 F4 E8 DB D3 C3 AF AA CC 
     453.  04:A520                          db 0x1E,0x54,0x27,0xE6,0xDB,0xEC,0xFA,0x15,0x33,0x21,0xF8,0xEF,0x02,0x15,0x28,0x2D,0x1A,0x0A,0x0F,0x18,0x18,0x13,0x0F,0x05,0xF2,0xE6,0xE1,0xD6,0xC4,0xB4,0xAE,0xC8
     453.  04:A520  1E 54 27 E6 DB EC FA 15 33 21 F8 EF 02 15 28 2D 
     453.  04:A530  1A 0A 0F 18 18 13 0F 05 F2 E6 E1 D6 C4 B4 AE C8 
     454.  04:A540                          db 0x09,0x48,0x35,0xF8,0xDF,0xEB,0xF7,0x06,0x21,0x28,0x0D,0xF4,0xFC,0x14,0x22,0x22,0x1E,0x16,0x0F,0x11,0x15,0x12,0x09,0x03,0xFC,0xE9,0xDC,0xD7,0xCD,0xBB,0xB0,0xC2
     454.  04:A540  09 48 35 F8 DF EB F7 06 21 28 0D F4 FC 14 22 22 
     454.  04:A550  1E 16 0F 11 15 12 09 03 FC E9 DC D7 CD BB B0 C2 
     455.  04:A560                          db 0x16,0x49,0x2D,0xF6,0xE5,0xEF,0xF7,0x05,0x1F,0x28,0x0F,0xF6,0xFE,0x16,0x20,0x1C,0x1A,0x19,0x12,0x0D,0x11,0x11,0x06,0xFD,0xF6,0xEB,0xDF,0xD7,0xCD,0xBB,0xB1,0xCC
     455.  04:A560  16 49 2D F6 E5 EF F7 05 1F 28 0F F6 FE 16 20 1C 
     455.  04:A570  1A 19 12 0D 11 11 06 FD F6 EB DF D7 CD BB B1 CC 
     456.  04:A580                          db 0x03,0x45,0x3E,0x05,0xE6,0xEE,0xF7,0xFA,0x0D,0x24,0x1F,0x04,0xFE,0x14,0x1F,0x13,0x11,0x1C,0x1E,0x13,0x0C,0x0D,0x06,0xFA,0xF6,0xF0,0xE4,0xD6,0xCE,0xC1,0xB3,0xC0
     456.  04:A580  03 45 3E 05 E6 EE F7 FA 0D 24 1F 04 FE 14 1F 13 
     456.  04:A590  11 1C 1E 13 0C 0D 06 FA F6 F0 E4 D6 CE C1 B3 C0 
     457.  04:A5A0                          db 0x00,0x3B,0x40,0x14,0xEF,0xEE,0xF6,0xF7,0xFD,0x19,0x29,0x17,0x03,0x0B,0x1A,0x13,0x08,0x13,0x23,0x1F,0x0F,0x08,0x07,0xFF,0xF0,0xEA,0xEB,0xE3,0xCE,0xB8,0xB0,0xC4
     457.  04:A5A0  00 3B 40 14 EF EE F6 F7 FD 19 29 17 03 0B 1A 13 
     457.  04:A5B0  08 13 23 1F 0F 08 07 FF F0 EA EB E3 CE B8 B0 C4 
     458.  04:A5C0                          db 0x0C,0x37,0x30,0x0E,0xFA,0xFC,0xFC,0xF4,0xF5,0x09,0x1E,0x1F,0x16,0x15,0x17,0x0F,0x04,0x08,0x1A,0x24,0x19,0x08,0x02,0xFD,0xEF,0xE1,0xDE,0xDF,0xD4,0xBF,0xB5,0xD0
     458.  04:A5C0  0C 37 30 0E FA FC FC F4 F5 09 1E 1F 16 15 17 0F 
     458.  04:A5D0  04 08 1A 24 19 08 02 FD EF E1 DE DF D4 BF B5 D0 
     459.  04:A5E0                          db 0x19,0x32,0x22,0x06,0xFC,0x02,0x00,0xF5,0xF5,0x09,0x1D,0x1E,0x17,0x15,0x15,0x0F,0x06,0x09,0x17,0x20,0x17,0x08,0xFE,0xF7,0xEB,0xDD,0xD7,0xD8,0xD1,0xC4,0xC4,0xE6
     459.  04:A5E0  19 32 22 06 FC 02 00 F5 F5 09 1D 1E 17 15 15 0F 
     459.  04:A5F0  06 09 17 20 17 08 FE F7 EB DD D7 D8 D1 C4 C4 E6 
     460.  04:A600                          db 0x0B,0x23,0x20,0x0D,0x01,0x02,0x06,0xFF,0xF8,0xFE,0x10,0x20,0x22,0x19,0x10,0x0B,0x0A,0x0B,0x0E,0x16,0x16,0x0D,0x01,0xF6,0xEC,0xE0,0xD7,0xD3,0xCF,0xCD,0xD2,0xE9
     460.  04:A600  0B 23 20 0D 01 02 06 FF F8 FE 10 20 22 19 10 0B 
     460.  04:A610  0A 0B 0E 16 16 0D 01 F6 EC E0 D7 D3 CF CD D2 E9 
     461.  04:A620                          db 0x01,0x0A,0x14,0x0B,0x05,0x04,0x05,0x02,0x00,0x04,0x10,0x1B,0x1D,0x16,0x0F,0x0C,0x0C,0x0C,0x0B,0x0B,0x0C,0x09,0x01,0xF6,0xEB,0xE3,0xDD,0xD9,0xD8,0xDC,0xE6,0xF3
     461.  04:A620  01 0A 14 0B 05 04 05 02 00 04 10 1B 1D 16 0F 0C 
     461.  04:A630  0C 0C 0B 0B 0C 09 01 F6 EB E3 DD D9 D8 DC E6 F3 
     462.  04:A640                          db 0xF6,0xFB,0x00,0x01,0x02,0x04,0x0B,0x0F,0x0F,0x0D,0x0D,0x10,0x10,0x0E,0x0D,0x0D,0x0C,0x0C,0x06,0x03,0x03,0x02,0xFC,0xF3,0xEC,0xE9,0xE8,0xE8,0xEA,0xED,0xF0,0xF3
     462.  04:A640  F6 FB 00 01 02 04 0B 0F 0F 0D 0D 10 10 0E 0D 0D 
     462.  04:A650  0C 0C 06 03 03 02 FC F3 EC E9 E8 E8 EA ED F0 F3 
     463.  04:A660                          db 0xFF,0xFF,0x01,0x01,0x02,0x03,0xFE,0xFF,0x03,0x06,0x07,0x08,0x09,0x07,0x06,0x06,0x06,0x04,0x03,0x02,0x00,0xFE,0xFD,0xFC,0xFB,0xFB,0xFA,0xFA,0xFB,0xFC,0xFE,0xFE
     463.  04:A660  FF FF 01 01 02 03 FE FF 03 06 07 08 09 07 06 06 
     463.  04:A670  06 04 03 02 00 FE FD FC FB FB FA FA FB FC FE FE 
     464.  04:A680                          db 0x00,0x00,0x00,0x00,0x00,0x00,0x00,0x00,0x00,0x01,0x00,0x00,0x01,0x01,0x00,0x00,0x00,0x00,0x00,0x00,0x00,0x00,0x00,0x00,0x00,0x00,0x00,0xFF,0x00,0x00,0x00,0x00
     464.  04:A680  00 00 00 00 00 00 00 00 00 01 00 00 01 01 00 00 
     464.  04:A690  00 00 00 00 00 00 00 00 00 00 00 FF 00 00 00 00 
     465.  04:A6A0                          db 0x00,0x00,0x00,0x00,0x00,0x00,0x00,0x00,0x00,0x00,0x00,0x00,0x00,0x00,0x00,0x00,0x00,0x00,0x00,0x00,0x00,0x00,0x00,0x00,0x00,0x00,0x00,0x00,0x00,0x00,0x00,0x00
     465.  04:A6A0  00 00 00 00 00 00 00 00 00 00 00 00 00 00 00 00 
     465.  04:A6B0  00 00 00 00 00 00 00 00 00 00 00 00 00 00 00 00 
     466.  04:A6C0                          db 0x00,0x00,0x00,0x00,0x00,0x00,0x00,0x00,0x00,0x00,0x00,0x00,0x00,0x00,0x00,0x00,0x00,0x00,0x00,0x00,0x00,0x00,0x00,0x00,0x00,0x00,0x00,0x00,0x00,0x00,0x00,0x00
     466.  04:A6C0  00 00 00 00 00 00 00 00 00 00 00 00 00 00 00 00 
     466.  04:A6D0  00 00 00 00 00 00 00 00 00 00 00 00 00 00 00 00 
     467.  04:A6E0                          db 0x00,0x00,0x00,0x00,0x00,0x00,0x00,0x00,0x00,0x00,0x00,0x00,0x00,0x00,0x00,0x00,0x00,0x00,0x00,0x00,0x00,0x00,0x00,0x00,0x00,0x00,0x00,0x00,0x00,0x00,0x00,0x00
     467.  04:A6E0  00 00 00 00 00 00 00 00 00 00 00 00 00 00 00 00 
     467.  04:A6F0  00 00 00 00 00 00 00 00 00 00 00 00 00 00 00 00 
     468.  04:A700                          db 0x00,0x00,0x00,0x00,0x00,0x00,0x00,0x00,0x00,0x00,0x00,0x00,0x00,0x00,0x00,0x00,0x00,0x00,0x00,0x00,0x00,0x00,0x00,0x00,0x00,0x00,0x00,0x00,0x00,0x00,0x00,0x00
     468.  04:A700  00 00 00 00 00 00 00 00 00 00 00 00 00 00 00 00 
     468.  04:A710  00 00 00 00 00 00 00 00 00 00 00 00 00 00 00 00 
     469.  04:A720                          db 0x00,0x00,0x00,0x00,0x00,0x00,0x00,0x00,0x00,0x00,0x00,0x00,0x00,0x00,0x00,0x00,0x00,0x00,0x00,0x00,0x00,0x00,0x00,0x00,0x00,0x00,0x00,0x00,0x00,0x00,0x00,0x00
     469.  04:A720  00 00 00 00 00 00 00 00 00 00 00 00 00 00 00 00 
     469.  04:A730  00 00 00 00 00 00 00 00 00 00 00 00 00 00 00 00 
     470.  04:A740                          db 0x00,0x00,0x00,0x00,0x00,0x00,0x00,0x00,0x00,0x00,0x00,0x00,0x00,0x00,0x00,0x00,0x00,0x00,0x00,0x00,0x00,0x00,0x00,0x00,0x00,0x00,0x00,0x00,0x00,0x00,0x00,0x00
     470.  04:A740  00 00 00 00 00 00 00 00 00 00 00 00 00 00 00 00 
     470.  04:A750  00 00 00 00 00 00 00 00 00 00 00 00 00 00 00 00 
     471.  04:A760                          db 0x00,0x00,0x00,0x00,0x00,0x00,0x00,0x00,0x00,0x00,0x00,0x00,0x00,0x00,0x00,0x00,0x00,0x00,0x00,0x00,0x00,0x00,0x00,0x00,0x00,0x00,0x00,0x00,0x00,0x00,0x00,0x00
     471.  04:A760  00 00 00 00 00 00 00 00 00 00 00 00 00 00 00 00 
     471.  04:A770  00 00 00 00 00 00 00 00 00 00 00 00 00 00 00 00 
     472.  04:A780                          db 0x00,0x00,0x00,0x00,0x00,0x00,0x00,0x00,0x00,0x00,0x00,0x00,0x00,0x00,0x00,0x00,0x00,0x00,0x00,0x00,0x00,0x00,0x00,0x00,0x00,0x00,0x00,0x00,0x00,0x00,0x00,0x00
     472.  04:A780  00 00 00 00 00 00 00 00 00 00 00 00 00 00 00 00 
     472.  04:A790  00 00 00 00 00 00 00 00 00 00 00 00 00 00 00 00 
     473.  04:A7A0                          db 0x00,0x00,0x00,0x00,0x00,0x00,0x00,0x00,0x00,0x00,0x00,0x00,0x00,0x00,0x00,0x00,0x00,0x00,0x00,0x00,0x00,0x00,0x00,0x00,0x00,0x00,0x00,0x00,0x00,0x00,0x00,0x00
     473.  04:A7A0  00 00 00 00 00 00 00 00 00 00 00 00 00 00 00 00 
     473.  04:A7B0  00 00 00 00 00 00 00 00 00 00 00 00 00 00 00 00 
     474.  04:A7C0                          db 0x00,0x00,0x00,0x00,0x00,0x00,0x00,0x00,0x00,0x00,0x00,0x00,0x00,0x00,0x00,0x00,0x00,0x00,0x00,0x00,0x00,0x00,0x00,0x00,0x00,0x00,0x00,0x00,0x00,0x00,0x00,0x00
     474.  04:A7C0  00 00 00 00 00 00 00 00 00 00 00 00 00 00 00 00 
     474.  04:A7D0  00 00 00 00 00 00 00 00 00 00 00 00 00 00 00 00 
     475.  04:A7E0                          db 0x00,0x00,0x00,0x00,0x00,0x00,0x00,0x00,0x00,0x00,0x00,0x00,0x00,0x00,0x00,0x00,0x00,0x00,0x00,0x00,0x00,0x00,0x00,0x00,0x00,0x00,0x00,0x00,0x00,0x00,0x00,0x00
     475.  04:A7E0  00 00 00 00 00 00 00 00 00 00 00 00 00 00 00 00 
     475.  04:A7F0  00 00 00 00 00 00 00 00 00 00 00 00 00 00 00 00 
     476.  04:A800                          db 0x00,0x00,0x00,0x00,0x00,0x00,0x00,0x00,0x00,0x00,0x00,0x00,0x00,0x00,0x00,0x00,0x00,0x00,0x00,0x00,0x00,0x00,0x00,0x00,0x00,0x00,0x00,0x00,0x00,0x00,0x00,0x00
     476.  04:A800  00 00 00 00 00 00 00 00 00 00 00 00 00 00 00 00 
     476.  04:A810  00 00 00 00 00 00 00 00 00 00 00 00 00 00 00 00 
     477.  04:A820                          db 0x00,0x00,0x00,0x00,0x00,0x00,0x00,0x00,0x00,0x00,0x00,0x00,0x00,0x00,0x00,0x00,0x00,0x00,0x00,0x00,0x00,0x00,0x00,0x00,0x00,0x00,0x00,0x00,0x00,0x00,0x00,0x00
     477.  04:A820  00 00 00 00 00 00 00 00 00 00 00 00 00 00 00 00 
     477.  04:A830  00 00 00 00 00 00 00 00 00 00 00 00 00 00 00 00 
     478.  04:A840                          db 0x00,0x00,0x00,0x00,0x00,0x00,0x00,0x00,0x00,0x00,0x00,0x00,0x00,0x00,0x00,0x00,0x00,0x00,0x00,0x00,0x00,0x00,0x00,0x00,0x00,0x00,0x00,0x00,0x00,0x00,0x00,0x00
     478.  04:A840  00 00 00 00 00 00 00 00 00 00 00 00 00 00 00 00 
     478.  04:A850  00 00 00 00 00 00 00 00 00 00 00 00 00 00 00 00 
     479.  04:A860                          db 0x00,0x00,0x00,0x00,0x00,0x00,0x00,0x00,0x00,0x00,0x00,0x00,0x00,0x00,0x00,0x00,0x00,0x00,0x00,0x00,0x00,0x00,0x00,0x00,0x00,0x00,0x00,0x00,0x00,0x00,0x00,0x00
     479.  04:A860  00 00 00 00 00 00 00 00 00 00 00 00 00 00 00 00 
     479.  04:A870  00 00 00 00 00 00 00 00 00 00 00 00 00 00 00 00 
     480.  04:A880                          db 0x00,0x00,0x00,0x00,0x00,0x00,0x00,0x00,0x00,0x00,0x00,0x00,0x00,0x00,0x00,0x00,0x00,0x00,0x00,0x00,0x00,0x00,0x00,0x00,0x00,0x00,0x00,0x00,0x00,0x00,0x00,0x00
     480.  04:A880  00 00 00 00 00 00 00 00 00 00 00 00 00 00 00 00 
     480.  04:A890  00 00 00 00 00 00 00 00 00 00 00 00 00 00 00 00 
     481.  04:A8A0                          db 0x00,0x00,0x00,0x00,0x00,0x00,0x00,0x00,0x00,0x00,0x00,0x00,0x00,0x00,0x00,0x00,0x00,0x00,0x00,0x00,0x00,0x00,0x00,0x00,0x00,0x00,0x00,0x00,0x00,0x00,0x00,0x00
     481.  04:A8A0  00 00 00 00 00 00 00 00 00 00 00 00 00 00 00 00 
     481.  04:A8B0  00 00 00 00 00 00 00 00 00 00 00 00 00 00 00 00 
     482.  04:A8C0                          db 0x00,0x00,0x00,0x00,0x00,0x00,0x00,0x00,0x00,0x00,0x00,0x00,0x00,0x00,0x00,0x00,0x00,0x00,0x00,0x00,0x00,0x00,0x00,0x00,0x00,0x00,0x00,0x00,0x00,0x00,0x00,0x00
     482.  04:A8C0  00 00 00 00 00 00 00 00 00 00 00 00 00 00 00 00 
     482.  04:A8D0  00 00 00 00 00 00 00 00 00 00 00 00 00 00 00 00 
     483.  04:A8E0                          db 0x00,0x00,0x00,0x00,0x00,0x00,0x00,0x00,0x00,0x00,0x00,0x00,0x00,0x00,0x00,0x00,0x00,0x00,0x00,0x00,0x00,0x00,0x00,0x00,0x00,0x00,0x00,0x00,0x00,0x00,0x00,0x00
     483.  04:A8E0  00 00 00 00 00 00 00 00 00 00 00 00 00 00 00 00 
     483.  04:A8F0  00 00 00 00 00 00 00 00 00 00 00 00 00 00 00 00 
     484.  04:A900                          db 0x00,0x00,0x00,0x00,0x00,0x00,0x00,0x00,0x00,0x00,0x00,0x00,0x00,0x00,0x00,0x00,0x00,0x00,0x00,0x00,0x00,0x00,0x00,0x00,0x00,0x00,0x00,0x00,0x00,0x00,0x00,0x00
     484.  04:A900  00 00 00 00 00 00 00 00 00 00 00 00 00 00 00 00 
     484.  04:A910  00 00 00 00 00 00 00 00 00 00 00 00 00 00 00 00 
     485.  04:A920                          db 0x00,0x00,0x00,0x00,0x00,0x00,0x00,0x00,0x00,0x00,0x00,0x00,0x00,0x00,0x00,0x00,0x00,0x00,0x00,0x00,0x00,0x00,0x00,0x00,0x00,0x00,0x00,0x00,0x00,0x00,0x00,0x00
     485.  04:A920  00 00 00 00 00 00 00 00 00 00 00 00 00 00 00 00 
     485.  04:A930  00 00 00 00 00 00 00 00 00 00 00 00 00 00 00 00 
     486.  04:A940                          db 0x00,0x00,0x00,0x00,0x00,0x00,0x00,0x00,0x00,0x00,0x00,0x00,0x00,0x00,0x00,0x00,0x00,0x00,0x00,0x00,0x00,0x00,0x00,0x00,0x00,0x00,0x00,0x00,0x00,0x00,0x00,0x00
     486.  04:A940  00 00 00 00 00 00 00 00 00 00 00 00 00 00 00 00 
     486.  04:A950  00 00 00 00 00 00 00 00 00 00 00 00 00 00 00 00 
     487.  04:A960                          db 0x00,0x00,0x00,0x00,0x00,0x00,0x00,0x00,0x00,0x00,0x00,0x00,0x00,0x00,0x00,0x00,0x00,0x00,0x00,0x00,0x00,0x00,0x00,0x00,0x00,0x00,0x00,0x00,0x00,0x00,0x00,0x00
     487.  04:A960  00 00 00 00 00 00 00 00 00 00 00 00 00 00 00 00 
     487.  04:A970  00 00 00 00 00 00 00 00 00 00 00 00 00 00 00 00 
     488.  04:A980                          db 0x00,0x00,0x00,0x00,0x00,0x00,0x00,0x00,0x00,0x00,0x00,0x00,0x00,0x00,0x00,0x00,0x00,0x00,0x00,0x00,0x00,0x00,0x00,0x00,0x00,0x00,0x00,0x00,0x00,0x00,0x00,0x00
     488.  04:A980  00 00 00 00 00 00 00 00 00 00 00 00 00 00 00 00 
     488.  04:A990  00 00 00 00 00 00 00 00 00 00 00 00 00 00 00 00 
     489.  04:A9A0                          db 0x00,0x00,0x00,0x00,0x00,0x00,0x00,0x00,0x00,0x00,0x00,0x00,0x00,0x00,0x00,0x00,0x00,0x00,0x00,0x00,0x00,0x00,0x00,0x00,0x00,0x00,0x00,0x00,0x00,0x00,0x00,0x00
     489.  04:A9A0  00 00 00 00 00 00 00 00 00 00 00 00 00 00 00 00 
     489.  04:A9B0  00 00 00 00 00 00 00 00 00 00 00 00 00 00 00 00 
     490.  04:A9C0                          db 0x00,0x00,0x00,0x00,0x00,0x00,0x00,0x00,0x00,0x00,0x00,0x00,0x00,0x00,0x00,0x00,0x00,0x00,0x00,0x00,0x00,0x00,0x00,0x00,0x00,0x00,0x00,0x00,0x00,0x00,0x00,0x00
     490.  04:A9C0  00 00 00 00 00 00 00 00 00 00 00 00 00 00 00 00 
     490.  04:A9D0  00 00 00 00 00 00 00 00 00 00 00 00 00 00 00 00 
     491.  04:A9E0                          db 0x00,0x00,0x00,0x00,0x00,0x00,0x00,0x00,0x00,0x00,0x00,0x00,0x00,0x00,0x00,0x00,0x00,0x00,0x00,0x00,0x00,0x00,0x00,0x00,0x00,0x00,0x00,0x00,0x00,0x00,0x00,0x00
     491.  04:A9E0  00 00 00 00 00 00 00 00 00 00 00 00 00 00 00 00 
     491.  04:A9F0  00 00 00 00 00 00 00 00 00 00 00 00 00 00 00 00 
     492.  04:AA00                          db 0x00,0x00,0x00,0x00,0x00,0x00,0x00,0x00,0x00,0x00,0x00,0x00,0x00,0x00,0x00,0x00,0x00,0x00,0x00,0x00,0x00,0x00,0x00,0x00,0x00,0x00,0x00,0x00,0x00,0x00,0x00,0x00
     492.  04:AA00  00 00 00 00 00 00 00 00 00 00 00 00 00 00 00 00 
     492.  04:AA10  00 00 00 00 00 00 00 00 00 00 00 00 00 00 00 00 
     493.  04:AA20                          db 0x00,0x00,0x00,0x00,0x00,0x00,0x00,0x00,0x00,0x00,0x00,0x00,0x00,0x00,0x00,0x00,0x00,0x00,0x00,0x00,0x00,0x00,0x00,0x00,0x00,0x00,0x00,0x00,0x00,0x00,0x00,0x00
     493.  04:AA20  00 00 00 00 00 00 00 00 00 00 00 00 00 00 00 00 
     493.  04:AA30  00 00 00 00 00 00 00 00 00 00 00 00 00 00 00 00 
     494.  04:AA40                          db 0x00,0x00,0x00,0x00,0x00,0x00,0x00,0x00,0x00,0x00,0x00,0x00,0x00,0x00,0x00,0x00,0x00,0x00,0x00,0x00,0x00,0x00,0x00,0x00,0x00,0x00,0x00,0x00,0x00,0x00,0x00,0x00
     494.  04:AA40  00 00 00 00 00 00 00 00 00 00 00 00 00 00 00 00 
     494.  04:AA50  00 00 00 00 00 00 00 00 00 00 00 00 00 00 00 00 
     495.  04:AA60                          db 0x00,0x00,0x00,0x00,0x00,0x00,0x00,0x00,0x00,0x00,0x00,0x00,0x00,0x00,0x00,0x00,0x00,0x00,0x00,0x00,0x00,0x00,0x00,0x00,0x00,0x00,0x00,0x00,0x00,0x00,0x00,0x00
     495.  04:AA60  00 00 00 00 00 00 00 00 00 00 00 00 00 00 00 00 
     495.  04:AA70  00 00 00 00 00 00 00 00 00 00 00 00 00 00 00 00 
     496.  04:AA80                          db 0x00,0x00,0x00,0x00,0x00,0x00,0x00,0x00,0x00,0x00,0x00,0x00,0x00,0x00,0x00,0x00,0x00,0x00,0x00,0x00,0x00,0x00,0x00,0x00,0x00,0x00,0x00,0x00,0x00,0x00,0x00,0x00
     496.  04:AA80  00 00 00 00 00 00 00 00 00 00 00 00 00 00 00 00 
     496.  04:AA90  00 00 00 00 00 00 00 00 00 00 00 00 00 00 00 00 
     497.  04:AAA0                          db 0x00,0x00,0x00,0x00,0x00,0x00,0x00,0x00,0x00,0x00,0x00,0x00,0x00,0x00,0x00,0x00,0x00,0x00,0x00,0x00,0x00,0x00,0x00,0x00,0x00,0x00,0x00,0x00,0x00,0x00,0x00,0x00
     497.  04:AAA0  00 00 00 00 00 00 00 00 00 00 00 00 00 00 00 00 
     497.  04:AAB0  00 00 00 00 00 00 00 00 00 00 00 00 00 00 00 00 
     498.  04:AAC0                          db 0x00,0x00,0x00,0x00,0x00,0x00,0x00,0x00,0x00,0x00,0x00,0x00,0x00,0x00,0x00,0x00,0x00,0x00,0x00,0x00,0x00,0x00,0x00,0x00,0x00,0x00,0x00,0x00,0x00,0x00,0x00,0x00
     498.  04:AAC0  00 00 00 00 00 00 00 00 00 00 00 00 00 00 00 00 
     498.  04:AAD0  00 00 00 00 00 00 00 00 00 00 00 00 00 00 00 00 
     499.  04:AAE0                          db 0x00,0x00,0x00,0x00,0x00,0x00,0x00,0x00,0x00,0x00,0x00,0x00,0x00,0x00,0x00,0x00,0x00,0x00,0x00,0x00,0x00,0x00,0x00,0x00,0x00,0x00,0x00,0x00,0x00,0x00,0x00,0x00
     499.  04:AAE0  00 00 00 00 00 00 00 00 00 00 00 00 00 00 00 00 
     499.  04:AAF0  00 00 00 00 00 00 00 00 00 00 00 00 00 00 00 00 
     500.  04:AB00                          db 0x00,0x00,0x00,0x00,0x00,0x00,0x00,0x00,0x00,0x00,0x00,0x00,0x00,0x00,0x00,0x00,0x00,0x00,0x00,0x00,0x00,0x00,0x00,0x00,0x00,0x00,0x00,0x00,0x00,0x00,0x00,0x00
     500.  04:AB00  00 00 00 00 00 00 00 00 00 00 00 00 00 00 00 00 
     500.  04:AB10  00 00 00 00 00 00 00 00 00 00 00 00 00 00 00 00 
     501.  04:AB20                          db 0x00,0x00,0x00,0x00,0x00,0x00,0x00,0x00,0x00,0x00,0x00,0x00,0x00,0x00,0x00,0x00,0x00,0x00,0x00,0x00,0x00,0x00,0x00,0x00,0x00,0x00,0x00,0x00,0x00,0x00,0x00,0x00
     501.  04:AB20  00 00 00 00 00 00 00 00 00 00 00 00 00 00 00 00 
     501.  04:AB30  00 00 00 00 00 00 00 00 00 00 00 00 00 00 00 00 
     502.  04:AB40                          db 0x00,0x00,0x00,0x00,0x00,0x00,0x00,0x00,0x00,0x00,0x00,0x00,0x00,0x00,0x00,0x00,0x00,0x00,0x00,0x00,0x00,0x00,0x00,0x00,0x00,0x00,0x00,0x00,0x00,0x00,0x00,0x00
     502.  04:AB40  00 00 00 00 00 00 00 00 00 00 00 00 00 00 00 00 
     502.  04:AB50  00 00 00 00 00 00 00 00 00 00 00 00 00 00 00 00 
     503.  04:AB60                          db 0x00,0x00,0x00,0x00,0x00,0x00,0x00,0x00,0x00,0x00,0x00,0x00,0x00,0x00,0x00,0x00,0x00,0x00,0x00,0x00,0x00,0x00,0x00,0x00,0x00,0x00,0x00,0x00,0x00,0x00,0x00,0x00
     503.  04:AB60  00 00 00 00 00 00 00 00 00 00 00 00 00 00 00 00 
     503.  04:AB70  00 00 00 00 00 00 00 00 00 00 00 00 00 00 00 00 
     504.  04:AB80                          db 0x00,0x00,0x00,0x00,0x00,0x00,0x00,0x00,0x00,0x00,0x00,0x00,0x00,0x00,0x00,0x00,0x00,0x00,0x00,0x00,0x00,0x00,0x00,0x00,0x00,0x00,0x00,0x00,0x00,0x00,0x00,0x00
     504.  04:AB80  00 00 00 00 00 00 00 00 00 00 00 00 00 00 00 00 
     504.  04:AB90  00 00 00 00 00 00 00 00 00 00 00 00 00 00 00 00 
     505.  04:ABA0                          db 0x00,0x00,0x00,0x00,0x00,0x00,0x00,0x00,0x00,0x00,0x00,0x00,0x00,0x00,0x00,0x00,0x00,0x00,0x00,0x00,0x00,0x00,0x00,0x00,0x00,0x00,0x00,0x00,0x00,0x00,0x00,0x00
     505.  04:ABA0  00 00 00 00 00 00 00 00 00 00 00 00 00 00 00 00 
     505.  04:ABB0  00 00 00 00 00 00 00 00 00 00 00 00 00 00 00 00 
     506.  04:ABC0                          db 0x00,0x00,0x00,0x00,0x00,0x00,0x00,0x00,0x00,0x00,0x00,0x00,0x00,0x00,0x00,0x00,0x00,0x00,0x00,0x00,0x00,0x00,0x00,0x00,0x00,0x00,0x00,0x00,0x00,0x00,0x00,0x00
     506.  04:ABC0  00 00 00 00 00 00 00 00 00 00 00 00 00 00 00 00 
     506.  04:ABD0  00 00 00 00 00 00 00 00 00 00 00 00 00 00 00 00 
     507.  04:ABE0                          db 0x00,0x00,0x00,0x00,0x00,0x00,0x00,0x00,0x00,0x00,0x00,0x00,0x00,0x00,0x00,0x00,0x00,0x00,0x00,0x00,0x00,0x00,0x00,0x00,0x00,0x00,0x00,0x00,0x00,0x00,0x00,0x00
     507.  04:ABE0  00 00 00 00 00 00 00 00 00 00 00 00 00 00 00 00 
     507.  04:ABF0  00 00 00 00 00 00 00 00 00 00 00 00 00 00 00 00 
     508.  04:AC00                          db 0x00,0x00,0x00,0x00,0x00,0x00,0x00,0x00,0x00,0x00,0x00,0x00,0x00,0x00,0x00,0x00,0x00,0x00,0x00,0x00,0x00,0x00,0x00,0x00,0x00,0x00,0x00,0x00,0x00,0x00,0x00,0x00
     508.  04:AC00  00 00 00 00 00 00 00 00 00 00 00 00 00 00 00 00 
     508.  04:AC10  00 00 00 00 00 00 00 00 00 00 00 00 00 00 00 00 
     509.  04:AC20                          db 0x00,0x00,0x00,0x00,0x00,0x00,0x00,0x00,0x00,0x00,0x00,0x00,0x00,0x00,0x00,0x00,0x00,0x00,0x00,0x00,0x00,0x00,0x00,0x00,0x00,0x00,0x00,0x00,0x00,0x00,0x00,0x00
     509.  04:AC20  00 00 00 00 00 00 00 00 00 00 00 00 00 00 00 00 
     509.  04:AC30  00 00 00 00 00 00 00 00 00 00 00 00 00 00 00 00 
     510.  04:AC40                          db 0x00,0x00,0x00,0x00,0x00,0x00,0x00,0x00,0x00,0x00,0x00,0x00,0x00,0x00,0x00,0x00,0x00,0x00,0x00,0x00,0x00,0x00,0x00,0x00,0x00,0x00,0x00,0x00,0x00,0x00,0x00,0x00
     510.  04:AC40  00 00 00 00 00 00 00 00 00 00 00 00 00 00 00 00 
     510.  04:AC50  00 00 00 00 00 00 00 00 00 00 00 00 00 00 00 00 
     511.  04:AC60                          db 0x00,0x00,0x00,0x00,0x00,0x00,0x00,0x00,0x00,0x00,0x00,0x00,0x00,0x00,0x00,0x00,0x00,0x00,0x00,0x00,0x00,0x00,0x00,0x00,0x00,0x00,0x00,0x00,0x00,0x00,0x00,0x00
     511.  04:AC60  00 00 00 00 00 00 00 00 00 00 00 00 00 00 00 00 
     511.  04:AC70  00 00 00 00 00 00 00 00 00 00 00 00 00 00 00 00 
     512.  04:AC80                          db 0x00,0x00,0x00,0x00,0x00,0x00,0x00,0x00,0x00,0x00,0x00,0x00,0x00,0x00,0x00,0x00,0x00,0x00,0x00,0x00,0x00,0x00,0x00,0x00,0x00,0x00,0x00,0x00,0x00,0x00,0x00,0x00
     512.  04:AC80  00 00 00 00 00 00 00 00 00 00 00 00 00 00 00 00 
     512.  04:AC90  00 00 00 00 00 00 00 00 00 00 00 00 00 00 00 00 
     513.  04:ACA0                          db 0x00,0x00,0x00,0x00,0x00,0x00,0x00,0x00,0x00,0x00,0x00,0x00,0x00,0x00,0x00,0x00,0x00,0x00,0x00,0x00,0x00,0x00,0x00,0x00,0x00,0x00,0x00,0x00,0x00,0x00,0x00,0x00
     513.  04:ACA0  00 00 00 00 00 00 00 00 00 00 00 00 00 00 00 00 
     513.  04:ACB0  00 00 00 00 00 00 00 00 00 00 00 00 00 00 00 00 
     514.  04:ACC0                          db 0x00,0x00,0x00,0x00,0x00,0x00,0x00,0x00,0x00,0x00,0x00,0x00,0x00,0x00,0x00,0x00,0x00,0x00,0x00,0x00,0x00,0x00,0x00,0x00,0x00,0x00,0x00,0x00,0x00,0x00,0x00,0x00
     514.  04:ACC0  00 00 00 00 00 00 00 00 00 00 00 00 00 00 00 00 
     514.  04:ACD0  00 00 00 00 00 00 00 00 00 00 00 00 00 00 00 00 
     515.  04:ACE0                          db 0x00,0x00,0x00,0x00,0x00,0x00,0x00,0x00,0x00,0x00,0x00,0x00,0x00,0x00,0x00,0x00,0x00,0x00,0x00,0x00,0x00,0x00,0x00,0x00,0x00,0x00,0x00,0x00,0x00,0x00,0x00,0x00
     515.  04:ACE0  00 00 00 00 00 00 00 00 00 00 00 00 00 00 00 00 
     515.  04:ACF0  00 00 00 00 00 00 00 00 00 00 00 00 00 00 00 00 
     516.  04:AD00                          db 0x00,0x00,0x00,0x00,0x00,0x00,0x00,0x00,0x00,0x00,0x00,0x00,0x00,0x00,0x00,0x00,0x00,0x00,0x00,0x00,0x00,0x00,0x00,0x00,0x00,0x00,0x00,0x00,0x00,0x00,0x00,0x00
     516.  04:AD00  00 00 00 00 00 00 00 00 00 00 00 00 00 00 00 00 
     516.  04:AD10  00 00 00 00 00 00 00 00 00 00 00 00 00 00 00 00 
     517.  04:AD20                          db 0x00,0x00,0x00,0x00,0x00,0x00,0x00,0x00,0x00,0x00,0x00,0x00,0x00,0x00,0x00,0x00,0x00,0x00,0x00,0x00,0x00,0x00,0x00,0x00,0x00,0x00,0x00,0x00,0x00,0x00,0x00,0x00
     517.  04:AD20  00 00 00 00 00 00 00 00 00 00 00 00 00 00 00 00 
     517.  04:AD30  00 00 00 00 00 00 00 00 00 00 00 00 00 00 00 00 
     518.  04:AD40                          db 0x00,0x00,0x00,0x00,0x00,0x00,0x00,0x00,0x00,0x00,0x00,0x00,0x00,0x00,0x00,0x00,0x00,0x00,0x00,0x00,0x00,0x00,0x00,0x00,0x00,0x00,0x00,0x00,0x00,0x00,0x00,0x00
     518.  04:AD40  00 00 00 00 00 00 00 00 00 00 00 00 00 00 00 00 
     518.  04:AD50  00 00 00 00 00 00 00 00 00 00 00 00 00 00 00 00 
     519.  04:AD60                          db 0x00,0x00,0x00,0x00,0x00,0x00,0x00,0x00,0x00,0x00,0x00,0x00,0x00,0x00,0x00,0x00,0x00,0x00,0x00,0x00,0x00,0x00,0x00,0x00,0x00,0x00,0x00,0x00,0x00,0x00,0x00,0x00
     519.  04:AD60  00 00 00 00 00 00 00 00 00 00 00 00 00 00 00 00 
     519.  04:AD70  00 00 00 00 00 00 00 00 00 00 00 00 00 00 00 00 
     520.  04:AD80                          db 0x00,0x00,0x00,0x00,0x00,0x00,0x00,0x00,0x00,0x00,0x00,0x00,0x00,0x00,0x00,0x00,0x00,0x00,0x00,0x00,0x00,0x00,0x00,0x00,0x00,0x00,0x00,0x00,0x00,0x00,0x00,0x00
     520.  04:AD80  00 00 00 00 00 00 00 00 00 00 00 00 00 00 00 00 
     520.  04:AD90  00 00 00 00 00 00 00 00 00 00 00 00 00 00 00 00 
     521.  04:ADA0                          db 0x00,0x00,0x00,0x00,0x00,0x00,0x00,0x00,0x00,0x00,0x00,0x00,0x00,0x00,0x00,0x00,0x00,0x00,0x00,0x00,0x00,0x00,0x00,0x00,0x00,0x00,0x00,0x00,0x00,0x00,0x00,0x00
     521.  04:ADA0  00 00 00 00 00 00 00 00 00 00 00 00 00 00 00 00 
     521.  04:ADB0  00 00 00 00 00 00 00 00 00 00 00 00 00 00 00 00 
     522.  04:ADC0                          CODE
     523.  04:6000                      data4:
     524.  04:6000                          db 0xE7,0xD5,0xC9,0xBD,0xB4,0xAF,0xB2,0xBD,0xD2,0xED,0x0C,0x28,0x3E,0x4B,0x4D,0x47,0x39,0x28,0x17,0x09,0x00,0xFD,0xFD,0x01,0x08,0x0F,0x17,0x1C,0x1D,0x18,0x0D,0xFD
     524.  04:6000  E7 D5 C9 BD B4 AF B2 BD D2 ED 0C 28 3E 4B 4D 47 
     524.  04:6010  39 28 17 09 00 FD FD 01 08 0F 17 1C 1D 18 0D FD 
     525.  04:6020                          db 0xE4,0xC7,0xAE,0x9A,0x8D,0x87,0x8A,0x9A,0xB8,0xE2,0x12,0x40,0x62,0x74,0x72,0x5F,0x41,0x20,0x06,0xF6,0xEF,0xEF,0xF7,0x02,0x0F,0x1E,0x2B,0x34,0x36,0x2E,0x1B,0x01
     525.  04:6020  E4 C7 AE 9A 8D 87 8A 9A B8 E2 12 40 62 74 72 5F 
     525.  04:6030  41 20 06 F6 EF EF F7 02 0F 1E 2B 34 36 2E 1B 01 
     526.  04:6040                          db 0xF7,0xCF,0xAA,0x91,0x84,0x84,0x8C,0x8D,0xA0,0xC1,0xEB,0x1D,0x4A,0x6A,0x73,0x64,0x43,0x1B,0xF9,0xE6,0xE4,0xEF,0x00,0x12,0x23,0x32,0x40,0x49,0x4D,0x49,0x39,0x1E
     526.  04:6040  F7 CF AA 91 84 84 8C 8D A0 C1 EB 1D 4A 6A 73 64 
     526.  04:6050  43 1B F9 E6 E4 EF 00 12 23 32 40 49 4D 49 39 1E 
     527.  04:6060                          db 0x21,0xFD,0xD7,0xB7,0xA2,0x99,0x98,0x9C,0xA9,0xC1,0xE8,0x16,0x43,0x61,0x67,0x54,0x2E,0x05,0xE7,0xDB,0xE1,0xF0,0xFE,0x06,0x07,0x08,0x10,0x21,0x35,0x46,0x46,0x3A
     527.  04:6060  21 FD D7 B7 A2 99 98 9C A9 C1 E8 16 43 61 67 54 
     527.  04:6070  2E 05 E7 DB E1 F0 FE 06 07 08 10 21 35 46 46 3A 
     528.  04:6080                          db 0x0D,0xF8,0xEB,0xE1,0xD5,0xC3,0xAF,0x9B,0x94,0xA3,0xCB,0x04,0x3C,0x61,0x64,0x49,0x1E,0xF8,0xDD,0xE0,0xF1,0x00,0x03,0xFC,0xF5,0xFB,0x10,0x2D,0x47,0x50,0x44,0x29
     528.  04:6080  0D F8 EB E1 D5 C3 AF 9B 94 A3 CB 04 3C 61 64 49 
     528.  04:6090  1E F8 DD E0 F1 00 03 FC F5 FB 10 2D 47 50 44 29 
     529.  04:60A0                          db 0x0C,0x0D,0x07,0xF5,0xDF,0xC5,0xAE,0xA4,0xA0,0xAE,0xCF,0xFC,0x2E,0x4D,0x54,0x3F,0x1B,0xFB,0xE7,0xE6,0xEC,0xF2,0xF4,0xF8,0x06,0x1B,0x32,0x3F,0x3C,0x2D,0x19,0x0F
     529.  04:60A0  0C 0D 07 F5 DF C5 AE A4 A0 AE CF FC 2E 4D 54 3F 
     529.  04:60B0  1B FB E7 E6 EC F2 F4 F8 06 1B 32 3F 3C 2D 19 0F 
     530.  04:60C0                          db 0x16,0x13,0x08,0xF6,0xE7,0xDD,0xCD,0xB9,0x9D,0x8E,0xAF,0xF4,0x42,0x6C,0x5E,0x38,0x02,0xE4,0xE2,0xF0,0xF7,0xEF,0xE8,0xF1,0x12,0x37,0x4B,0x42,0x24,0x0C,0x03,0x0C
     530.  04:60C0  16 13 08 F6 E7 DD CD B9 9D 8E AF F4 42 6C 5E 38 
     530.  04:60D0  02 E4 E2 F0 F7 EF E8 F1 12 37 4B 42 24 0C 03 0C 
     531.  04:60E0                          db 0x09,0x08,0x11,0x1F,0x1A,0xFB,0xD4,0xB2,0x9F,0x93,0x8F,0xBF,0x14,0x65,0x7E,0x4E,0x0A,0xDC,0xD8,0xE4,0xE1,0xDC,0xE1,0xFD,0x27,0x43,0x3E,0x23,0x10,0x0B,0x12,0x12
     531.  04:60E0  09 08 11 1F 1A FB D4 B2 9F 93 8F BF 14 65 7E 4E 
     531.  04:60F0  0A DC D8 E4 E1 DC E1 FD 27 43 3E 23 10 0B 12 12 
     532.  04:6100                          db 0x08,0x16,0x2D,0x2D,0x16,0xF4,0xDA,0xCD,0xBB,0xA5,0x91,0x9A,0xE1,0x3E,0x6E,0x56,0x14,0xE9,0xE1,0xE8,0xE5,0xDD,0xEE,0x24,0x4D,0x40,0x15,0xFB,0x02,0x18,0x19,0x0C
     532.  04:6100  08 16 2D 2D 16 F4 DA CD BB A5 91 9A E1 3E 6E 56 
     532.  04:6110  14 E9 E1 E8 E5 DD EE 24 4D 40 15 FB 02 18 19 0C 
     533.  04:6120                          db 0x0C,0x17,0x23,0x1D,0x11,0x05,0xF9,0xE7,0xCB,0xB3,0xA9,0xA7,0xB5,0xEB,0x25,0x2F,0x0B,0xE4,0xE6,0x06,0x21,0x15,0x1A,0x24,0x26,0x0D,0xEF,0xF0,0x10,0x2C,0x27,0x13
     533.  04:6120  0C 17 23 1D 11 05 F9 E7 CB B3 A9 A7 B5 EB 25 2F 
     533.  04:6130  0B E4 E6 06 21 15 1A 24 26 0D EF F0 10 2C 27 13 
     534.  04:6140                          db 0x10,0x10,0x17,0x22,0x23,0x13,0xFB,0xE8,0xD5,0xBB,0xA6,0xA1,0xA7,0xDE,0x2B,0x34,0x07,0xDE,0xEB,0x0C,0x1C,0x22,0x2A,0x32,0x1D,0xF7,0xE2,0xF5,0x16,0x23,0x21,0x18
     534.  04:6140  10 10 17 22 23 13 FB E8 D5 BB A6 A1 A7 DE 2B 34 
     534.  04:6150  07 DE EB 0C 1C 22 2A 32 1D F7 E2 F5 16 23 21 18 
     535.  04:6160                          db 0x0E,0x11,0x1A,0x1F,0x22,0x19,0x02,0xEB,0xD9,0xBE,0xA9,0xA7,0xAB,0xD2,0x1B,0x29,0x07,0xF1,0xFA,0x05,0x08,0x23,0x38,0x2C,0x0E,0xFA,0xF3,0xF3,0x09,0x1F,0x25,0x1B
     535.  04:6160  0E 11 1A 1F 22 19 02 EB D9 BE A9 A7 AB D2 1B 29 
     535.  04:6170  07 F1 FA 05 08 23 38 2C 0E FA F3 F3 09 1F 25 1B 
     536.  04:6180                          db 0x10,0x12,0x19,0x21,0x22,0x18,0x03,0xEF,0xDF,0xC4,0xB0,0xAF,0xAA,0xBC,0x06,0x1F,0x05,0x09,0x04,0xF6,0x07,0x28,0x2B,0x23,0x1E,0x01,0xEE,0xF7,0x0B,0x16,0x20,0x1D
     536.  04:6180  10 12 19 21 22 18 03 EF DF C4 B0 AF AA BC 06 1F 
     536.  04:6190  05 09 04 F6 07 28 2B 23 1E 01 EE F7 0B 16 20 1D 
     537.  04:61A0                          db 0x18,0x1D,0x21,0x24,0x1C,0x0C,0xFE,0xEC,0xD9,0xC7,0xB7,0xAF,0xA9,0xC4,0xF8,0x02,0x16,0x18,0x03,0x10,0x18,0x1E,0x27,0x25,0x0B,0xFB,0xF7,0xFB,0x0B,0x16,0x1B,0x18
     537.  04:61A0  18 1D 21 24 1C 0C FE EC D9 C7 B7 AF A9 C4 F8 02 
     537.  04:61B0  16 18 03 10 18 1E 27 25 0B FB F7 FB 0B 16 1B 18 
     538.  04:61C0                          db 0x17,0x1C,0x22,0x1F,0x19,0x0E,0x01,0xF5,0xE4,0xD1,0xC0,0xB6,0xAD,0xBD,0xDA,0xEB,0x07,0x0E,0x17,0x22,0x21,0x26,0x23,0x1B,0x10,0x06,0x03,0x01,0x04,0x09,0x0A,0x12
     538.  04:61C0  17 1C 22 1F 19 0E 01 F5 E4 D1 C0 B6 AD BD DA EB 
     538.  04:61D0  07 0E 17 22 21 26 23 1B 10 06 03 01 04 09 0A 12 
     539.  04:61E0                          db 0x1A,0x1F,0x1F,0x1C,0x14,0x09,0xFB,0xEA,0xD7,0xC4,0xB3,0xAB,0xB0,0xBE,0xD5,0xEF,0x0A,0x22,0x33,0x3D,0x3C,0x33,0x25,0x16,0x09,0x00,0xFB,0xFD,0xFF,0x03,0x0A,0x12
     539.  04:61E0  1A 1F 1F 1C 14 09 FB EA D7 C4 B3 AB B0 BE D5 EF 
     539.  04:61F0  0A 22 33 3D 3C 33 25 16 09 00 FB FD FF 03 0A 12 
     540.  04:6200                          db 0x1D,0x20,0x1F,0x19,0x10,0x04,0xF5,0xE4,0xD2,0xC1,0xB3,0xAF,0xB4,0xC4,0xDC,0xF5,0x10,0x26,0x35,0x3C,0x39,0x2E,0x1F,0x10,0x05,0xFD,0xF9,0xFA,0xFE,0x04,0x0D,0x15
     540.  04:6200  1D 20 1F 19 10 04 F5 E4 D2 C1 B3 AF B4 C4 DC F5 
     540.  04:6210  10 26 35 3C 39 2E 1F 10 05 FD F9 FA FE 04 0D 15 
     541.  04:6220                          db 0x17,0x1F,0x23,0x24,0x1B,0x10,0x00,0xF0,0xDD,0xCB,0xBB,0xB1,0xB2,0xC5,0xDE,0xF8,0x0B,0x18,0x21,0x23,0x25,0x22,0x1D,0x12,0x0A,0x00,0xFD,0xFC,0x00,0x07,0x06,0x0F
     541.  04:6220  17 1F 23 24 1B 10 00 F0 DD CB BB B1 B2 C5 DE F8 
     541.  04:6230  0B 18 21 23 25 22 1D 12 0A 00 FD FC 00 07 06 0F 
     542.  04:6240                          db 0x21,0x22,0x21,0x1D,0x14,0x07,0xF8,0xEE,0xE0,0xD2,0xC5,0xBC,0xBC,0xC9,0xEF,0x0C,0x21,0x1B,0x17,0x0D,0x0D,0x0D,0x12,0x0E,0x06,0xFC,0xF8,0xFA,0x03,0x0F,0x18,0x1E
     542.  04:6240  21 22 21 1D 14 07 F8 EE E0 D2 C5 BC BC C9 EF 0C 
     542.  04:6250  21 1B 17 0D 0D 0D 12 0E 06 FC F8 FA 03 0F 18 1E 
     543.  04:6260                          db 0x1E,0x1D,0x1C,0x1A,0x14,0x09,0xFC,0xF0,0xE4,0xD7,0xC9,0xC1,0xC0,0xCB,0xED,0x0A,0x1D,0x18,0x0E,0x06,0x06,0x0B,0x11,0x0E,0x05,0xFB,0xF7,0xFC,0x08,0x13,0x1B,0x1E
     543.  04:6260  1E 1D 1C 1A 14 09 FC F0 E4 D7 C9 C1 C0 CB ED 0A 
     543.  04:6270  1D 18 0E 06 06 0B 11 0E 05 FB F7 FC 08 13 1B 1E 
     544.  04:6280                          db 0x1C,0x1D,0x1C,0x18,0x0E,0x01,0xF5,0xED,0xE2,0xD7,0xCA,0xC3,0xC1,0xD5,0xF7,0x11,0x1B,0x13,0x0B,0x06,0x09,0x0E,0x0F,0x09,0xFF,0xF9,0xF9,0x01,0x0D,0x16,0x1A,0x1B
     544.  04:6280  1C 1D 1C 18 0E 01 F5 ED E2 D7 CA C3 C1 D5 F7 11 
     544.  04:6290  1B 13 0B 06 09 0E 0F 09 FF F9 F9 01 0D 16 1A 1B 
     545.  04:62A0                          db 0x1C,0x1B,0x18,0x10,0x05,0xFA,0xF2,0xE9,0xE1,0xD7,0xCE,0xCC,0xD0,0xE7,0x00,0x12,0x14,0x10,0x0A,0x09,0x0A,0x0B,0x0A,0x04,0xFE,0xFC,0x00,0x07,0x10,0x15,0x18,0x1A
     545.  04:62A0  1C 1B 18 10 05 FA F2 E9 E1 D7 CE CC D0 E7 00 12 
     545.  04:62B0  14 10 0A 09 0A 0B 0A 04 FE FC 00 07 10 15 18 1A 
     546.  04:62C0                          db 0x1D,0x19,0x11,0x07,0xFD,0xF5,0xEE,0xE6,0xDD,0xD5,0xD2,0xD2,0xDC,0xF0,0x04,0x0F,0x10,0x0F,0x0D,0x0C,0x0B,0x08,0x04,0x00,0x00,0x03,0x07,0x0B,0x0F,0x13,0x18,0x1C
     546.  04:62C0  1D 19 11 07 FD F5 EE E6 DD D5 D2 D2 DC F0 04 0F 
     546.  04:62D0  10 0F 0D 0C 0B 08 04 00 00 03 07 0B 0F 13 18 1C 
     547.  04:62E0                          db 0x19,0x12,0x0A,0x01,0xF9,0xF1,0xE9,0xE2,0xDB,0xD7,0xD7,0xD9,0xE3,0xF2,0x01,0x0B,0x10,0x11,0x10,0x0E,0x0C,0x08,0x03,0x01,0x02,0x05,0x09,0x0C,0x10,0x14,0x19,0x1B
     547.  04:62E0  19 12 0A 01 F9 F1 E9 E2 DB D7 D7 D9 E3 F2 01 0B 
     547.  04:62F0  10 11 10 0E 0C 08 03 01 02 05 09 0C 10 14 19 1B 
     548.  04:6300                          db 0x15,0x11,0x0C,0x05,0xFD,0xF5,0xEC,0xE3,0xDC,0xD8,0xD7,0xD9,0xE0,0xEC,0xFA,0x07,0x10,0x15,0x17,0x14,0x12,0x0F,0x0A,0x07,0x06,0x07,0x08,0x09,0x0B,0x0F,0x13,0x15
     548.  04:6300  15 11 0C 05 FD F5 EC E3 DC D8 D7 D9 E0 EC FA 07 
     548.  04:6310  10 15 17 14 12 0F 0A 07 06 07 08 09 0B 0F 13 15 
     549.  04:6320                          db 0x11,0x0D,0x08,0x01,0xF9,0xF0,0xE7,0xE0,0xDC,0xDA,0xDB,0xDF,0xE6,0xF2,0xFD,0x08,0x0F,0x14,0x16,0x16,0x13,0x0E,0x0B,0x09,0x08,0x09,0x09,0x0A,0x0C,0x0F,0x12,0x13
     549.  04:6320  11 0D 08 01 F9 F0 E7 E0 DC DA DB DF E6 F2 FD 08 
     549.  04:6330  0F 14 16 16 13 0E 0B 09 08 09 09 0A 0C 0F 12 13 
     550.  04:6340                          db 0x03,0x00,0xFD,0xF9,0xF5,0xF1,0xEC,0xE7,0xE4,0xE3,0xE4,0xE6,0xE9,0xEF,0xF7,0xFF,0x05,0x0B,0x10,0x13,0x15,0x14,0x12,0x11,0x0F,0x0E,0x0C,0x0A,0x09,0x08,0x07,0x05
     550.  04:6340  03 00 FD F9 F5 F1 EC E7 E4 E3 E4 E6 E9 EF F7 FF 
     550.  04:6350  05 0B 10 13 15 14 12 11 0F 0E 0C 0A 09 08 07 05 
     551.  04:6360                          db 0x01,0xFF,0xFD,0xFB,0xF8,0xF5,0xF3,0xF1,0xF0,0xF0,0xF2,0xF4,0xF7,0xFA,0xFE,0x01,0x03,0x05,0x08,0x0C,0x0F,0x10,0x10,0x10,0x0E,0x0C,0x0A,0x08,0x07,0x05,0x03,0x02
     551.  04:6360  01 FF FD FB F8 F5 F3 F1 F0 F0 F2 F4 F7 FA FE 01 
     551.  04:6370  03 05 08 0C 0F 10 10 10 0E 0C 0A 08 07 05 03 02 
     552.  04:6380                          db 0xFF,0xFD,0xFC,0xFB,0xFA,0xFA,0xFA,0xFA,0xFB,0xFB,0xFC,0xFD,0xFE,0xFE,0xFE,0xFF,0x00,0x01,0x01,0x03,0x05,0x06,0x06,0x06,0x09,0x08,0x08,0x06,0x05,0x03,0x02,0x00
     552.  04:6380  FF FD FC FB FA FA FA FA FB FB FC FD FE FE FE FF 
     552.  04:6390  00 01 01 03 05 06 06 06 09 08 08 06 05 03 02 00 
     553.  04:63A0                          db 0xFF,0xFF,0xFF,0xFF,0xFF,0xFF,0xFE,0xFF,0xFE,0xFE,0xFF,0xFF,0x00,0x00,0x00,0x00,0x00,0x00,0x00,0x01,0x01,0x01,0x01,0x01,0x01,0x03,0x02,0x02,0x01,0x01,0x00,0x00
     553.  04:63A0  FF FF FF FF FF FF FE FF FE FE FF FF 00 00 00 00 
     553.  04:63B0  00 00 00 01 01 01 01 01 01 03 02 02 01 01 00 00 
     554.  04:63C0                          db 0x00,0x00,0x00,0x00,0x00,0x00,0x00,0x00,0x00,0x00,0x00,0x00,0x01,0x00,0x00,0x00,0x00,0x00,0x00,0x00,0xFF,0x00,0x00,0x00,0x00,0x00,0x00,0x00,0x00,0x00,0x00,0x00
     554.  04:63C0  00 00 00 00 00 00 00 00 00 00 00 00 01 00 00 00 
     554.  04:63D0  00 00 00 00 FF 00 00 00 00 00 00 00 00 00 00 00 
     555.  04:63E0                          db 0x00,0x00,0x00,0x00,0x00,0x00,0x00,0x00,0x00,0x00,0x00,0x00,0x00,0x00,0x00,0x00,0x00,0x00,0x00,0xFF,0x00,0x00,0x00,0x00,0x00,0x00,0x00,0x00,0x00,0x00,0x00,0x00
     555.  04:63E0  00 00 00 00 00 00 00 00 00 00 00 00 00 00 00 00 
     555.  04:63F0  00 00 00 FF 00 00 00 00 00 00 00 00 00 00 00 00 
     556.  04:6400                          db 0x00,0x00,0x00,0x00,0x00,0x00,0x00,0x00,0x00,0x00,0x00,0x00,0x00,0x00,0x00,0x00,0x00,0x00,0x00,0x00,0x00,0x00,0x00,0x00,0x00,0x00,0x00,0x00,0x00,0x00,0x00,0x00
     556.  04:6400  00 00 00 00 00 00 00 00 00 00 00 00 00 00 00 00 
     556.  04:6410  00 00 00 00 00 00 00 00 00 00 00 00 00 00 00 00 
     557.  04:6420                          db 0x00,0x00,0x00,0x00,0x00,0x00,0x00,0x00,0x00,0x00,0x00,0x00,0x00,0x00,0x00,0x00,0x00,0x00,0x00,0x00,0x00,0x00,0x00,0x00,0x00,0x00,0x00,0x00,0x00,0x00,0x00,0x00
     557.  04:6420  00 00 00 00 00 00 00 00 00 00 00 00 00 00 00 00 
     557.  04:6430  00 00 00 00 00 00 00 00 00 00 00 00 00 00 00 00 
     558.  04:6440                          db 0x00,0x00,0x00,0x00,0x00,0x00,0x00,0x00,0x00,0x00,0x00,0x00,0x00,0x00,0x00,0x00,0x00,0x00,0x00,0x00,0x00,0x00,0x00,0x00,0x00,0x00,0x00,0x00,0x00,0x00,0x00,0x00
     558.  04:6440  00 00 00 00 00 00 00 00 00 00 00 00 00 00 00 00 
     558.  04:6450  00 00 00 00 00 00 00 00 00 00 00 00 00 00 00 00 
     559.  04:6460                          db 0x00,0x00,0x00,0x00,0x00,0x00,0x00,0x00,0x00,0x00,0x00,0x00,0x00,0x00,0x00,0x00,0x00,0x00,0x00,0x00,0x00,0x00,0x00,0x00,0x00,0x00,0x00,0x00,0x00,0x00,0x00,0x00
     559.  04:6460  00 00 00 00 00 00 00 00 00 00 00 00 00 00 00 00 
     559.  04:6470  00 00 00 00 00 00 00 00 00 00 00 00 00 00 00 00 
     560.  04:6480                          db 0x00,0x00,0x00,0x00,0x00,0x00,0x00,0x00,0x00,0x00,0x00,0x00,0x00,0x00,0x00,0x00,0x00,0x00,0x00,0x00,0x00,0x00,0x00,0x00,0x00,0x00,0x00,0x00,0x00,0x00,0x00,0x00
     560.  04:6480  00 00 00 00 00 00 00 00 00 00 00 00 00 00 00 00 
     560.  04:6490  00 00 00 00 00 00 00 00 00 00 00 00 00 00 00 00 
     561.  04:64A0                          db 0x00,0x00,0x00,0x00,0x00,0x00,0x00,0x00,0x00,0x00,0x00,0x00,0x00,0x00,0x00,0x00,0x00,0x00,0x00,0x00,0x00,0x00,0x00,0x00,0x00,0x00,0x00,0x00,0x00,0x00,0x00,0x00
     561.  04:64A0  00 00 00 00 00 00 00 00 00 00 00 00 00 00 00 00 
     561.  04:64B0  00 00 00 00 00 00 00 00 00 00 00 00 00 00 00 00 
     562.  04:64C0                          db 0x00,0x00,0x00,0x00,0x00,0x00,0x00,0x00,0x00,0x00,0x00,0x00,0x00,0x00,0x00,0x00,0x00,0x00,0x00,0x00,0x00,0x00,0x00,0x00,0x00,0x00,0x00,0x00,0x00,0x00,0x00,0x00
     562.  04:64C0  00 00 00 00 00 00 00 00 00 00 00 00 00 00 00 00 
     562.  04:64D0  00 00 00 00 00 00 00 00 00 00 00 00 00 00 00 00 
     563.  04:64E0                          db 0x00,0x00,0x00,0x00,0x00,0x00,0x00,0x00,0x00,0x00,0x00,0x00,0x00,0x00,0x00,0x00,0x00,0x00,0x00,0x00,0x00,0x00,0x00,0x00,0x00,0x00,0x00,0x00,0x00,0x00,0x00,0x00
     563.  04:64E0  00 00 00 00 00 00 00 00 00 00 00 00 00 00 00 00 
     563.  04:64F0  00 00 00 00 00 00 00 00 00 00 00 00 00 00 00 00 
     564.  04:6500                          db 0x00,0x00,0x00,0x00,0x00,0x00,0x00,0x00,0x00,0x00,0x00,0x00,0x00,0x00,0x00,0x00,0x00,0x00,0x00,0x00,0x00,0x00,0x00,0x00,0x00,0x00,0x00,0x00,0x00,0x00,0x00,0x00
     564.  04:6500  00 00 00 00 00 00 00 00 00 00 00 00 00 00 00 00 
     564.  04:6510  00 00 00 00 00 00 00 00 00 00 00 00 00 00 00 00 
     565.  04:6520                          db 0x00,0x00,0x00,0x00,0x00,0x00,0x00,0x00,0x00,0x00,0x00,0x00,0x00,0x00,0x00,0x00,0x00,0x00,0x00,0x00,0x00,0x00,0x00,0x00,0x00,0x00,0x00,0x00,0x00,0x00,0x00,0x00
     565.  04:6520  00 00 00 00 00 00 00 00 00 00 00 00 00 00 00 00 
     565.  04:6530  00 00 00 00 00 00 00 00 00 00 00 00 00 00 00 00 
     566.  04:6540                          db 0x00,0x00,0x00,0x00,0x00,0x00,0x00,0x00,0x00,0x00,0x00,0x00,0x00,0x00,0x00,0x00,0x00,0x00,0x00,0x00,0x00,0x00,0x00,0x00,0x00,0x00,0x00,0x00,0x00,0x00,0x00,0x00
     566.  04:6540  00 00 00 00 00 00 00 00 00 00 00 00 00 00 00 00 
     566.  04:6550  00 00 00 00 00 00 00 00 00 00 00 00 00 00 00 00 
     567.  04:6560                          db 0x00,0x00,0x00,0x00,0x00,0x00,0x00,0x00,0x00,0x00,0x00,0x00,0x00,0x00,0x00,0x00,0x00,0x00,0x00,0x00,0x00,0x00,0x00,0x00,0x00,0x00,0x00,0x00,0x00,0x00,0x00,0x00
     567.  04:6560  00 00 00 00 00 00 00 00 00 00 00 00 00 00 00 00 
     567.  04:6570  00 00 00 00 00 00 00 00 00 00 00 00 00 00 00 00 
     568.  04:6580                          db 0x00,0x00,0x00,0x00,0x00,0x00,0x00,0x00,0x00,0x00,0x00,0x00,0x00,0x00,0x00,0x00,0x00,0x00,0x00,0x00,0x00,0x00,0x00,0x00,0x00,0x00,0x00,0x00,0x00,0x00,0x00,0x00
     568.  04:6580  00 00 00 00 00 00 00 00 00 00 00 00 00 00 00 00 
     568.  04:6590  00 00 00 00 00 00 00 00 00 00 00 00 00 00 00 00 
     569.  04:65A0                          db 0x00,0x00,0x00,0x00,0x00,0x00,0x00,0x00,0x00,0x00,0x00,0x00,0x00,0x00,0x00,0x00,0x00,0x00,0x00,0x00,0x00,0x00,0x00,0x00,0x00,0x00,0x00,0x00,0x00,0x00,0x00,0x00
     569.  04:65A0  00 00 00 00 00 00 00 00 00 00 00 00 00 00 00 00 
     569.  04:65B0  00 00 00 00 00 00 00 00 00 00 00 00 00 00 00 00 
     570.  04:65C0                          db 0x00,0x00,0x00,0x00,0x00,0x00,0x00,0x00,0x00,0x00,0x00,0x00,0x00,0x00,0x00,0x00,0x00,0x00,0x00,0x00,0x00,0x00,0x00,0x00,0x00,0x00,0x00,0x00,0x00,0x00,0x00,0x00
     570.  04:65C0  00 00 00 00 00 00 00 00 00 00 00 00 00 00 00 00 
     570.  04:65D0  00 00 00 00 00 00 00 00 00 00 00 00 00 00 00 00 
     571.  04:65E0                          db 0x00,0x00,0x00,0x00,0x00,0x00,0x00,0x00,0x00,0x00,0x00,0x00,0x00,0x00,0x00,0x00,0x00,0x00,0x00,0x00,0x00,0x00,0x00,0x00,0x00,0x00,0x00,0x00,0x00,0x00,0x00,0x00
     571.  04:65E0  00 00 00 00 00 00 00 00 00 00 00 00 00 00 00 00 
     571.  04:65F0  00 00 00 00 00 00 00 00 00 00 00 00 00 00 00 00 
     572.  04:6600                          db 0x00,0x00,0x00,0x00,0x00,0x00,0x00,0x00,0x00,0x00,0x00,0x00,0x00,0x00,0x00,0x00,0x00,0x00,0x00,0x00,0x00,0x00,0x00,0x00,0x00,0x00,0x00,0x00,0x00,0x00,0x00,0x00
     572.  04:6600  00 00 00 00 00 00 00 00 00 00 00 00 00 00 00 00 
     572.  04:6610  00 00 00 00 00 00 00 00 00 00 00 00 00 00 00 00 
     573.  04:6620                          db 0x00,0x00,0x00,0x00,0x00,0x00,0x00,0x00,0x00,0x00,0x00,0x00,0x00,0x00,0x00,0x00,0x00,0x00,0x00,0x00,0x00,0x00,0x00,0x00,0x00,0x00,0x00,0x00,0x00,0x00,0x00,0x00
     573.  04:6620  00 00 00 00 00 00 00 00 00 00 00 00 00 00 00 00 
     573.  04:6630  00 00 00 00 00 00 00 00 00 00 00 00 00 00 00 00 
     574.  04:6640                          db 0x00,0x00,0x00,0x00,0x00,0x00,0x00,0x00,0x00,0x00,0x00,0x00,0x00,0x00,0x00,0x00,0x00,0x00,0x00,0x00,0x00,0x00,0x00,0x00,0x00,0x00,0x00,0x00,0x00,0x00,0x00,0x00
     574.  04:6640  00 00 00 00 00 00 00 00 00 00 00 00 00 00 00 00 
     574.  04:6650  00 00 00 00 00 00 00 00 00 00 00 00 00 00 00 00 
     575.  04:6660                          db 0x00,0x00,0x00,0x00,0x00,0x00,0x00,0x00,0x00,0x00,0x00,0x00,0x00,0x00,0x00,0x00,0x00,0x00,0x00,0x00,0x00,0x00,0x00,0x00,0x00,0x00,0x00,0x00,0x00,0x00,0x00,0x00
     575.  04:6660  00 00 00 00 00 00 00 00 00 00 00 00 00 00 00 00 
     575.  04:6670  00 00 00 00 00 00 00 00 00 00 00 00 00 00 00 00 
     576.  04:6680                          db 0x00,0x00,0x00,0x00,0x00,0x00,0x00,0x00,0x00,0x00,0x00,0x00,0x00,0x00,0x00,0x00,0x00,0x00,0x00,0x00,0x00,0x00,0x00,0x00,0x00,0x00,0x00,0x00,0x00,0x00,0x00,0x00
     576.  04:6680  00 00 00 00 00 00 00 00 00 00 00 00 00 00 00 00 
     576.  04:6690  00 00 00 00 00 00 00 00 00 00 00 00 00 00 00 00 
     577.  04:66A0                          db 0x00,0x00,0x00,0x00,0x00,0x00,0x00,0x00,0x00,0x00,0x00,0x00,0x00,0x00,0x00,0x00,0x00,0x00,0x00,0x00,0x00,0x00,0x00,0x00,0x00,0x00,0x00,0x00,0x00,0x00,0x00,0x00
     577.  04:66A0  00 00 00 00 00 00 00 00 00 00 00 00 00 00 00 00 
     577.  04:66B0  00 00 00 00 00 00 00 00 00 00 00 00 00 00 00 00 
     578.  04:66C0                          db 0x00,0x00,0x00,0x00,0x00,0x00,0x00,0x00,0x00,0x00,0x00,0x00,0x00,0x00,0x00,0x00,0x00,0x00,0x00,0x00,0x00,0x00,0x00,0x00,0x00,0x00,0x00,0x00,0x00,0x00,0x00,0x00
     578.  04:66C0  00 00 00 00 00 00 00 00 00 00 00 00 00 00 00 00 
     578.  04:66D0  00 00 00 00 00 00 00 00 00 00 00 00 00 00 00 00 
     579.  04:66E0                          db 0x00,0x00,0x00,0x00,0x00,0x00,0x00,0x00,0x00,0x00,0x00,0x00,0x00,0x00,0x00,0x00,0x00,0x00,0x00,0x00,0x00,0x00,0x00,0x00,0x00,0x00,0x00,0x00,0x00,0x00,0x00,0x00
     579.  04:66E0  00 00 00 00 00 00 00 00 00 00 00 00 00 00 00 00 
     579.  04:66F0  00 00 00 00 00 00 00 00 00 00 00 00 00 00 00 00 
     580.  04:6700                          db 0x00,0x00,0x00,0x00,0x00,0x00,0x00,0x00,0x00,0x00,0x00,0x00,0x00,0x00,0x00,0x00,0x00,0x00,0x00,0x00,0x00,0x00,0x00,0x00,0x00,0x00,0x00,0x00,0x00,0x00,0x00,0x00
     580.  04:6700  00 00 00 00 00 00 00 00 00 00 00 00 00 00 00 00 
     580.  04:6710  00 00 00 00 00 00 00 00 00 00 00 00 00 00 00 00 
     581.  04:6720                          db 0x00,0x00,0x00,0x00,0x00,0x00,0x00,0x00,0x00,0x00,0x00,0x00,0x00,0x00,0x00,0x00,0x00,0x00,0x00,0x00,0x00,0x00,0x00,0x00,0x00,0x00,0x00,0x00,0x00,0x00,0x00,0x00
     581.  04:6720  00 00 00 00 00 00 00 00 00 00 00 00 00 00 00 00 
     581.  04:6730  00 00 00 00 00 00 00 00 00 00 00 00 00 00 00 00 
     582.  04:6740                          db 0x00,0x00,0x00,0x00,0x00,0x00,0x00,0x00,0x00,0x00,0x00,0x00,0x00,0x00,0x00,0x00,0x00,0x00,0x00,0x00,0x00,0x00,0x00,0x00,0x00,0x00,0x00,0x00,0x00,0x00,0x00,0x00
     582.  04:6740  00 00 00 00 00 00 00 00 00 00 00 00 00 00 00 00 
     582.  04:6750  00 00 00 00 00 00 00 00 00 00 00 00 00 00 00 00 
     583.  04:6760                          db 0x00,0x00,0x00,0x00,0x00,0x00,0x00,0x00,0x00,0x00,0x00,0x00,0x00,0x00,0x00,0x00,0x00,0x00,0x00,0x00,0x00,0x00,0x00,0x00,0x00,0x00,0x00,0x00,0x00,0x00,0x00,0x00
     583.  04:6760  00 00 00 00 00 00 00 00 00 00 00 00 00 00 00 00 
     583.  04:6770  00 00 00 00 00 00 00 00 00 00 00 00 00 00 00 00 
     584.  04:6780                          db 0x00,0x00,0x00,0x00,0x00,0x00,0x00,0x00,0x00,0x00,0x00,0x00,0x00,0x00,0x00,0x00,0x00,0x00,0x00,0x00,0x00,0x00,0x00,0x00,0x00,0x00,0x00,0x00,0x00,0x00,0x00,0x00
     584.  04:6780  00 00 00 00 00 00 00 00 00 00 00 00 00 00 00 00 
     584.  04:6790  00 00 00 00 00 00 00 00 00 00 00 00 00 00 00 00 
     585.  04:67A0                          db 0x00,0x00,0x00,0x00,0x00,0x00,0x00,0x00,0x00,0x00,0x00,0x00,0x00,0x00,0x00,0x00,0x00,0x00,0x00,0x00,0x00,0x00,0x00,0x00,0x00,0x00,0x00,0x00,0x00,0x00,0x00,0x00
     585.  04:67A0  00 00 00 00 00 00 00 00 00 00 00 00 00 00 00 00 
     585.  04:67B0  00 00 00 00 00 00 00 00 00 00 00 00 00 00 00 00 
     586.  04:67C0                          db 0x00,0x00,0x00,0x00,0x00,0x00,0x00,0x00,0x00,0x00,0x00,0x00,0x00,0x00,0x00,0x00,0x00,0x00,0x00,0x00,0x00,0x00,0x00,0x00,0x00,0x00,0x00,0x00,0x00,0x00,0x00,0x00
     586.  04:67C0  00 00 00 00 00 00 00 00 00 00 00 00 00 00 00 00 
     586.  04:67D0  00 00 00 00 00 00 00 00 00 00 00 00 00 00 00 00 
     587.  04:67E0                          db 0x00,0x00,0x00,0x00,0x00,0x00,0x00,0x00,0x00,0x00,0x00,0x00,0x00,0x00,0x00,0x00,0x00,0x00,0x00,0x00,0x00,0x00,0x00,0x00,0x00,0x00,0x00,0x00,0x00,0x00,0x00,0x00
     587.  04:67E0  00 00 00 00 00 00 00 00 00 00 00 00 00 00 00 00 
     587.  04:67F0  00 00 00 00 00 00 00 00 00 00 00 00 00 00 00 00 
     588.  04:6800                          db 0x00,0x00,0x00,0x00,0x00,0x00,0x00,0x00,0x00,0x00,0x00,0x00,0x00,0x00,0x00,0x00,0x00,0x00,0x00,0x00,0x00,0x00,0x00,0x00,0x00,0x00,0x00,0x00,0x00,0x00,0x00,0x00
     588.  04:6800  00 00 00 00 00 00 00 00 00 00 00 00 00 00 00 00 
     588.  04:6810  00 00 00 00 00 00 00 00 00 00 00 00 00 00 00 00 
     589.  04:6820                          db 0x00,0x00,0x00,0x00,0x00,0x00,0x00,0x00,0x00,0x00,0x00,0x00,0x00,0x00,0x00,0x00,0x00,0x00,0x00,0x00,0x00,0x00,0x00,0x00,0x00,0x00,0x00,0x00,0x00,0x00,0x00,0x00
     589.  04:6820  00 00 00 00 00 00 00 00 00 00 00 00 00 00 00 00 
     589.  04:6830  00 00 00 00 00 00 00 00 00 00 00 00 00 00 00 00 
     590.  04:6840                          db 0x00,0x00,0x00,0x00,0x00,0x00,0x00,0x00,0x00,0x00,0x00,0x00,0x00,0x00,0x00,0x00,0x00,0x00,0x00,0x00,0x00,0x00,0x00,0x00,0x00,0x00,0x00,0x00,0x00,0x00,0x00,0x00
     590.  04:6840  00 00 00 00 00 00 00 00 00 00 00 00 00 00 00 00 
     590.  04:6850  00 00 00 00 00 00 00 00 00 00 00 00 00 00 00 00 
     591.  04:6860                          db 0x00,0x00,0x00,0x00,0x00,0x00,0x00,0x00,0x00,0x00,0x00,0x00,0x00,0x00,0x00,0x00,0x00,0x00,0x00,0x00,0x00,0x00,0x00,0x00,0x00,0x00,0x00,0x00,0x00,0x00,0x00,0x00
     591.  04:6860  00 00 00 00 00 00 00 00 00 00 00 00 00 00 00 00 
     591.  04:6870  00 00 00 00 00 00 00 00 00 00 00 00 00 00 00 00 
     592.  04:6880                          db 0x00,0x00,0x00,0x00,0x00,0x00,0x00,0x00,0x00,0x00,0x00,0x00,0x00,0x00,0x00,0x00,0x00,0x00,0x00,0x00,0x00,0x00,0x00,0x00,0x00,0x00,0x00,0x00,0x00,0x00,0x00,0x00
     592.  04:6880  00 00 00 00 00 00 00 00 00 00 00 00 00 00 00 00 
     592.  04:6890  00 00 00 00 00 00 00 00 00 00 00 00 00 00 00 00 
     593.  04:68A0                          db 0x00,0x00,0x00,0x00,0x00,0x00,0x00,0x00,0x00,0x00,0x00,0x00,0x00,0x00,0x00,0x00,0x00,0x00,0x00,0x00,0x00,0x00,0x00,0x00,0x00,0x00,0x00,0x00,0x00,0x00,0x00,0x00
     593.  04:68A0  00 00 00 00 00 00 00 00 00 00 00 00 00 00 00 00 
     593.  04:68B0  00 00 00 00 00 00 00 00 00 00 00 00 00 00 00 00 
     594.  04:68C0                          db 0x00,0x00,0x00,0x00,0x00,0x00,0x00,0x00,0x00,0x00,0x00,0x00,0x00,0x00,0x00,0x00,0x00,0x00,0x00,0x00,0x00,0x00,0x00,0x00,0x00,0x00,0x00,0x00,0x00,0x00,0x00,0x00
     594.  04:68C0  00 00 00 00 00 00 00 00 00 00 00 00 00 00 00 00 
     594.  04:68D0  00 00 00 00 00 00 00 00 00 00 00 00 00 00 00 00 
     595.  04:68E0                          db 0x00,0x00,0x00,0x00,0x00,0x00,0x00,0x00,0x00,0x00,0x00,0x00,0x00,0x00,0x00,0x00,0x00,0x00,0x00,0x00,0x00,0x00,0x00,0x00,0x00,0x00,0x00,0x00,0x00,0x00,0x00,0x00
     595.  04:68E0  00 00 00 00 00 00 00 00 00 00 00 00 00 00 00 00 
     595.  04:68F0  00 00 00 00 00 00 00 00 00 00 00 00 00 00 00 00 
     596.  04:6900                          db 0x00,0x00,0x00,0x00,0x00,0x00,0x00,0x00,0x00,0x00,0x00,0x00,0x00,0x00,0x00,0x00,0x00,0x00,0x00,0x00,0x00,0x00,0x00,0x00,0x00,0x00,0x00,0x00,0x00,0x00,0x00,0x00
     596.  04:6900  00 00 00 00 00 00 00 00 00 00 00 00 00 00 00 00 
     596.  04:6910  00 00 00 00 00 00 00 00 00 00 00 00 00 00 00 00 
     597.  04:6920                          db 0x00,0x00,0x00,0x00,0x00,0x00,0x00,0x00,0x00,0x00,0x00,0x00,0x00,0x00,0x00,0x00,0x00,0x00,0x00,0x00,0x00,0x00,0x00,0x00,0x00,0x00,0x00,0x00,0x00,0x00,0x00,0x00
     597.  04:6920  00 00 00 00 00 00 00 00 00 00 00 00 00 00 00 00 
     597.  04:6930  00 00 00 00 00 00 00 00 00 00 00 00 00 00 00 00 
     598.  04:6940                          db 0x00,0x00,0x00,0x00,0x00,0x00,0x00,0x00,0x00,0x00,0x00,0x00,0x00,0x00,0x00,0x00,0x00,0x00,0x00,0x00,0x00,0x00,0x00,0x00,0x00,0x00,0x00,0x00,0x00,0x00,0x00,0x00
     598.  04:6940  00 00 00 00 00 00 00 00 00 00 00 00 00 00 00 00 
     598.  04:6950  00 00 00 00 00 00 00 00 00 00 00 00 00 00 00 00 
     599.  04:6960                          db 0x00,0x00,0x00,0x00,0x00,0x00,0x00,0x00,0x00,0x00,0x00,0x00,0x00,0x00,0x00,0x00,0x00,0x00,0x00,0x00,0x00,0x00,0x00,0x00,0x00,0x00,0x00,0x00,0x00,0x00,0x00,0x00
     599.  04:6960  00 00 00 00 00 00 00 00 00 00 00 00 00 00 00 00 
     599.  04:6970  00 00 00 00 00 00 00 00 00 00 00 00 00 00 00 00 
     600.  04:6980                          db 0x00,0x00,0x00,0x00,0x00,0x00,0x00,0x00,0x00,0x00,0x00,0x00,0x00,0x00,0x00,0x00,0x00,0x00,0x00,0x00,0x00,0x00,0x00,0x00,0x00,0x00,0x00,0x00,0x00,0x00,0x00,0x00
     600.  04:6980  00 00 00 00 00 00 00 00 00 00 00 00 00 00 00 00 
     600.  04:6990  00 00 00 00 00 00 00 00 00 00 00 00 00 00 00 00 
     601.  04:69A0                          db 0x00,0x00,0x00,0x00,0x00,0x00,0x00,0x00,0x00,0x00,0x00,0x00,0x00,0x00,0x00,0x00,0x00,0x00,0x00,0x00,0x00,0x00,0x00,0x00,0x00,0x00,0x00,0x00,0x00,0x00,0x00,0x00
     601.  04:69A0  00 00 00 00 00 00 00 00 00 00 00 00 00 00 00 00 
     601.  04:69B0  00 00 00 00 00 00 00 00 00 00 00 00 00 00 00 00 
     602.  04:69C0                          db 0x00,0x00,0x00,0x00,0x00,0x00,0x00,0x00,0x00,0x00,0x00,0x00,0x00,0x00,0x00,0x00,0x00,0x00,0x00,0x00,0x00,0x00,0x00,0x00,0x00,0x00,0x00,0x00,0x00,0x00,0x00,0x00
     602.  04:69C0  00 00 00 00 00 00 00 00 00 00 00 00 00 00 00 00 
     602.  04:69D0  00 00 00 00 00 00 00 00 00 00 00 00 00 00 00 00 
     603.  04:69E0                          db 0x00,0x00,0x00,0x00,0x00,0x00,0x00,0x00,0x00,0x00,0x00,0x00,0x00,0x00,0x00,0x00,0x00,0x00,0x00,0x00,0x00,0x00,0x00,0x00,0x00,0x00,0x00,0x00,0x00,0x00,0x00,0x00
     603.  04:69E0  00 00 00 00 00 00 00 00 00 00 00 00 00 00 00 00 
     603.  04:69F0  00 00 00 00 00 00 00 00 00 00 00 00 00 00 00 00 
     604.  04:6A00                          db 0x00,0x00,0x00,0x00,0x00,0x00,0x00,0x00,0x00,0x00,0x00,0x00,0x00,0x00,0x00,0x00,0x00,0x00,0x00,0x00,0x00,0x00,0x00,0x00,0x00,0x00,0x00,0x00,0x00,0x00,0x00,0x00
     604.  04:6A00  00 00 00 00 00 00 00 00 00 00 00 00 00 00 00 00 
     604.  04:6A10  00 00 00 00 00 00 00 00 00 00 00 00 00 00 00 00 
     605.  04:6A20                          db 0x00,0x00,0x00,0x00,0x00,0x00,0x00,0x00,0x00,0x00,0x00,0x00,0x00,0x00,0x00,0x00,0x00,0x00,0x00,0x00,0x00,0x00,0x00,0x00,0x00,0x00,0x00,0x00,0x00,0x00,0x00,0x00
     605.  04:6A20  00 00 00 00 00 00 00 00 00 00 00 00 00 00 00 00 
     605.  04:6A30  00 00 00 00 00 00 00 00 00 00 00 00 00 00 00 00 
     606.  04:6A40                          db 0x00,0x00,0x00,0x00,0x00,0x00,0x00,0x00,0x00,0x00,0x00,0x00,0x00,0x00,0x00,0x00,0x00,0x00,0x00,0x00,0x00,0x00,0x00,0x00,0x00,0x00,0x00,0x00,0x00,0x00,0x00,0x00
     606.  04:6A40  00 00 00 00 00 00 00 00 00 00 00 00 00 00 00 00 
     606.  04:6A50  00 00 00 00 00 00 00 00 00 00 00 00 00 00 00 00 
     607.  04:6A60                          db 0x00,0x00,0x00,0x00,0x00,0x00,0x00,0x00,0x00,0x00,0x00,0x00,0x00,0x00,0x00,0x00,0x00,0x00,0x00,0x00,0x00,0x00,0x00,0x00,0x00,0x00,0x00,0x00,0x00,0x00,0x00,0x00
     607.  04:6A60  00 00 00 00 00 00 00 00 00 00 00 00 00 00 00 00 
     607.  04:6A70  00 00 00 00 00 00 00 00 00 00 00 00 00 00 00 00 
     608.  04:6A80                          db 0x00,0x00,0x00,0x00,0x00,0x00,0x00,0x00,0x00,0x00,0x00,0x00,0x00,0x00,0x00,0x00,0x00,0x00,0x00,0x00,0x00,0x00,0x00,0x00,0x00,0x00,0x00,0x00,0x00,0x00,0x00,0x00
     608.  04:6A80  00 00 00 00 00 00 00 00 00 00 00 00 00 00 00 00 
     608.  04:6A90  00 00 00 00 00 00 00 00 00 00 00 00 00 00 00 00 
     609.  04:6AA0                          db 0x00,0x00,0x00,0x00,0x00,0x00,0x00,0x00,0x00,0x00,0x00,0x00,0x00,0x00,0x00,0x00,0x00,0x00,0x00,0x00,0x00,0x00,0x00,0x00,0x00,0x00,0x00,0x00,0x00,0x00,0x00,0x00
     609.  04:6AA0  00 00 00 00 00 00 00 00 00 00 00 00 00 00 00 00 
     609.  04:6AB0  00 00 00 00 00 00 00 00 00 00 00 00 00 00 00 00 
     610.  04:6AC0                          db 0x00,0x00,0x00,0x00,0x00,0x00,0x00,0x00,0x00,0x00,0x00,0x00,0x00,0x00,0x00,0x00,0x00,0x00,0x00,0x00,0x00,0x00,0x00,0x00,0x00,0x00,0x00,0x00,0x00,0x00,0x00,0x00
     610.  04:6AC0  00 00 00 00 00 00 00 00 00 00 00 00 00 00 00 00 
     610.  04:6AD0  00 00 00 00 00 00 00 00 00 00 00 00 00 00 00 00 
     611.  04:6AE0                          db 0x00,0x00,0x00,0x00,0x00,0x00,0x00,0x00,0x00,0x00,0x00,0x00,0x00,0x00,0x00,0x00,0x00,0x00,0x00,0x00,0x00,0x00,0x00,0x00,0x00,0x00,0x00,0x00,0x00,0x00,0x00,0x00
     611.  04:6AE0  00 00 00 00 00 00 00 00 00 00 00 00 00 00 00 00 
     611.  04:6AF0  00 00 00 00 00 00 00 00 00 00 00 00 00 00 00 00 
     612.  04:6B00                          db 0x00,0x00,0x00,0x00,0x00,0x00,0x00,0x00,0x00,0x00,0x00,0x00,0x00,0x00,0x00,0x00,0x00,0x00,0x00,0x00,0x00,0x00,0x00,0x00,0x00,0x00,0x00,0x00,0x00,0x00,0x00,0x00
     612.  04:6B00  00 00 00 00 00 00 00 00 00 00 00 00 00 00 00 00 
     612.  04:6B10  00 00 00 00 00 00 00 00 00 00 00 00 00 00 00 00 
     613.  04:6B20                          db 0x00,0x00,0x00,0x00,0x00,0x00,0x00,0x00,0x00,0x00,0x00,0x00,0x00,0x00,0x00,0x00,0x00,0x00,0x00,0x00,0x00,0x00,0x00,0x00,0x00,0x00,0x00,0x00,0x00,0x00,0x00,0x00
     613.  04:6B20  00 00 00 00 00 00 00 00 00 00 00 00 00 00 00 00 
     613.  04:6B30  00 00 00 00 00 00 00 00 00 00 00 00 00 00 00 00 
     614.  04:6B40                          db 0x00,0x00,0x00,0x00,0x00,0x00,0x00,0x00,0x00,0x00,0x00,0x00,0x00,0x00,0x00,0x00,0x00,0x00,0x00,0x00,0x00,0x00,0x00,0x00,0x00,0x00,0x00,0x00,0x00,0x00,0x00,0x00
     614.  04:6B40  00 00 00 00 00 00 00 00 00 00 00 00 00 00 00 00 
     614.  04:6B50  00 00 00 00 00 00 00 00 00 00 00 00 00 00 00 00 
     615.  04:6B60                          db 0x00,0x00,0x00,0x00,0x00,0x00,0x00,0x00,0x00,0x00,0x00,0x00,0x00,0x00,0x00,0x00,0x00,0x00,0x00,0x00,0x00,0x00,0x00,0x00,0x00,0x00,0x00,0x00,0x00,0x00,0x00,0x00
     615.  04:6B60  00 00 00 00 00 00 00 00 00 00 00 00 00 00 00 00 
     615.  04:6B70  00 00 00 00 00 00 00 00 00 00 00 00 00 00 00 00 
     616.  04:6B80                          db 0x00,0x01,0x02,0xFE,0xFD,0xFF,0x01,0x01,0xFF,0x00,0x00,0x00,0x00,0x01,0x02,0xFF,0xFD,0xFF,0x01,0x01,0x00,0x01,0x02,0x01,0xFF,0xFE,0x01,0x01,0xFF,0xFF,0x00,0x02
     616.  04:6B80  00 01 02 FE FD FF 01 01 FF 00 00 00 00 01 02 FF 
     616.  04:6B90  FD FF 01 01 00 01 02 01 FF FE 01 01 FF FF 00 02 
     617.  04:6BA0                          db 0x03,0x02,0x02,0x00,0xFC,0xFE,0x00,0x00,0x01,0x00,0x02,0x01,0x01,0x03,0xFF,0xFE,0xFD,0x02,0x05,0x00,0xFE,0x02,0x05,0xFE,0xF9,0x01,0x03,0x01,0xFD,0xFB,0x00,0x03
     617.  04:6BA0  03 02 02 00 FC FE 00 00 01 00 02 01 01 03 FF FE 
     617.  04:6BB0  FD 02 05 00 FE 02 05 FE F9 01 03 01 FD FB 00 03 
     618.  04:6BC0                          db 0x07,0x02,0x02,0x06,0x05,0x04,0x08,0x05,0x05,0x05,0x05,0x08,0x09,0x08,0x03,0xFF,0xFC,0x01,0x02,0x00,0xFB,0xF4,0xF6,0xF5,0xF2,0xF5,0xF5,0xF3,0xF2,0xF4,0xFA,0x04
     618.  04:6BC0  07 02 02 06 05 04 08 05 05 05 05 08 09 08 03 FF 
     618.  04:6BD0  FC 01 02 00 FB F4 F6 F5 F2 F5 F5 F3 F2 F4 FA 04 
     619.  04:6BE0                          db 0xF7,0xE9,0xF1,0xF6,0x0A,0x1E,0x1D,0x17,0x14,0x11,0x18,0x25,0x2B,0x26,0x1E,0x1A,0x19,0x1C,0x1A,0x0C,0xFB,0xF2,0xEE,0xDF,0xD7,0xC2,0xC0,0xBF,0xC4,0xE0,0x0A,0x0E
     619.  04:6BE0  F7 E9 F1 F6 0A 1E 1D 17 14 11 18 25 2B 26 1E 1A 
     619.  04:6BF0  19 1C 1A 0C FB F2 EE DF D7 C2 C0 BF C4 E0 0A 0E 
     620.  04:6C00                          db 0xE9,0xDE,0xD9,0xDE,0x26,0x36,0x2D,0x14,0x10,0x07,0x0C,0x25,0x30,0x2D,0x23,0x16,0x12,0x1E,0x22,0x17,0xFF,0xEE,0xE3,0xD1,0xBF,0xBF,0xB3,0xA7,0x9F,0xFD,0x60,0x2F
     620.  04:6C00  E9 DE D9 DE 26 36 2D 14 10 07 0C 25 30 2D 23 16 
     620.  04:6C10  12 1E 22 17 FF EE E3 D1 BF BF B3 A7 9F FD 60 2F 
     621.  04:6C20                          db 0x07,0xE0,0xC6,0xAA,0x05,0x58,0x41,0x24,0x13,0xEB,0xFB,0x26,0x30,0x32,0x38,0x1B,0x07,0x26,0x31,0x2A,0x0B,0xE9,0xDF,0xD0,0xC2,0xBE,0xA8,0x99,0x82,0xCD,0x78,0x6A
     621.  04:6C20  07 E0 C6 AA 05 58 41 24 13 EB FB 26 30 32 38 1B 
     621.  04:6C30  07 26 31 2A 0B E9 DF D0 C2 BE A8 99 82 CD 78 6A 
     622.  04:6C40                          db 0x04,0xED,0xAA,0xC1,0x24,0x3D,0x34,0x40,0x13,0xF2,0x0A,0x13,0x20,0x45,0x43,0x1D,0x1D,0x1F,0x18,0x19,0x07,0xED,0xD3,0xB6,0xAD,0xA6,0x9B,0x91,0x91,0x31,0x7F,0x31
     622.  04:6C40  04 ED AA C1 24 3D 34 40 13 F2 0A 13 20 45 43 1D 
     622.  04:6C50  1D 1F 18 19 07 ED D3 B6 AD A6 9B 91 91 31 7F 31 
     623.  04:6C60                          db 0x20,0xF5,0xDB,0xF4,0x04,0x1B,0x3C,0x3A,0x1E,0x1B,0x16,0x0E,0x21,0x30,0x2B,0x2D,0x29,0x16,0x0D,0x06,0xF4,0xE0,0xC4,0xB4,0xAC,0xA6,0xA2,0x9C,0xDE,0x2D,0x2F,0x26
     623.  04:6C60  20 F5 DB F4 04 1B 3C 3A 1E 1B 16 0E 21 30 2B 2D 
     623.  04:6C70  29 16 0D 06 F4 E0 C4 B4 AC A6 A2 9C DE 2D 2F 26 
     624.  04:6C80                          db 0x0E,0x09,0x0B,0x0B,0x0B,0x11,0x16,0x18,0x1E,0x21,0x1F,0x21,0x22,0x1D,0x1D,0x18,0x0C,0x04,0x01,0xF9,0xE9,0xDC,0xCD,0xC1,0xC0,0xBE,0xBB,0xD0,0xEA,0xF9,0x09,0x15
     624.  04:6C80  0E 09 0B 0B 0B 11 16 18 1E 21 1F 21 22 1D 1D 18 
     624.  04:6C90  0C 04 01 F9 E9 DC CD C1 C0 BE BB D0 EA F9 09 15 
     625.  04:6CA0                          db 0xFE,0x02,0x03,0x02,0x06,0x07,0x06,0x0A,0x0D,0x0D,0x10,0x11,0x0F,0x0E,0x08,0x06,0x02,0x00,0xFD,0xF9,0xF5,0xF1,0xED,0xEA,0xE7,0xE5,0xE8,0xED,0xEF,0xF4,0xFB,0xFD
     625.  04:6CA0  FE 02 03 02 06 07 06 0A 0D 0D 10 11 0F 0E 08 06 
     625.  04:6CB0  02 00 FD F9 F5 F1 ED EA E7 E5 E8 ED EF F4 FB FD 
     626.  04:6CC0                          db 0xFD,0xFF,0x00,0x00,0x01,0x01,0x01,0x06,0x05,0x05,0x05,0x04,0x03,0x03,0x02,0x00,0x00,0x00,0xFF,0xFF,0xFD,0xFD,0xFD,0xFD,0xFD,0xFD,0xFC,0xFC,0xFD,0xFC,0xFE,0xFD
     626.  04:6CC0  FD FF 00 00 01 01 01 06 05 05 05 04 03 03 02 00 
     626.  04:6CD0  00 00 FF FF FD FD FD FD FD FD FC FC FD FC FE FD 
     627.  04:6CE0                          db 0x00,0x00,0x00,0x00,0x00,0x00,0x01,0x01,0x00,0x00,0x01,0x00,0x00,0x00,0x00,0x01,0x00,0x00,0x01,0x00,0x00,0x00,0x00,0x00,0x00,0x00,0x00,0x00,0x00,0xFF,0x00,0x00
     627.  04:6CE0  00 00 00 00 00 00 01 01 00 00 01 00 00 00 00 01 
     627.  04:6CF0  00 00 01 00 00 00 00 00 00 00 00 00 00 FF 00 00 
     628.  04:6D00                          db 0x00,0x00,0xFF,0x00,0x00,0x00,0x01,0xFF,0x01,0x00,0x01,0x00,0x00,0x00,0x00,0x01,0x00,0xFF,0x01,0x00,0x01,0x00,0x00,0x00,0x00,0x00,0x00,0x00,0x00,0x00,0x00,0x00
     628.  04:6D00  00 00 FF 00 00 00 01 FF 01 00 01 00 00 00 00 01 
     628.  04:6D10  00 FF 01 00 01 00 00 00 00 00 00 00 00 00 00 00 
     629.  04:6D20                          db 0xF6,0xF4,0xF3,0xF4,0xF7,0xF8,0xFD,0x00,0x06,0x06,0x0B,0x0B,0x0D,0x0C,0x0D,0x0C,0x02,0x04,0x02,0x04,0x02,0x03,0x02,0x03,0x01,0x02,0xFF,0xFF,0xFC,0xFC,0xFA,0xF8
     629.  04:6D20  F6 F4 F3 F4 F7 F8 FD 00 06 06 0B 0B 0D 0C 0D 0C 
     629.  04:6D30  02 04 02 04 02 03 02 03 01 02 FF FF FC FC FA F8 
     630.  04:6D40                          db 0xCD,0xCB,0xC2,0xC6,0xDC,0xE7,0xF7,0x09,0x1A,0x1C,0x1F,0x22,0x1A,0x12,0x0E,0x07,0x00,0x00,0x04,0x07,0x11,0x1C,0x20,0x24,0x23,0x1C,0x10,0x04,0xF5,0xEB,0xDF,0xD7
     630.  04:6D40  CD CB C2 C6 DC E7 F7 09 1A 1C 1F 22 1A 12 0E 07 
     630.  04:6D50  00 00 04 07 11 1C 20 24 23 1C 10 04 F5 EB DF D7 
     631.  04:6D60                          db 0xCA,0xC0,0xBA,0xB7,0xDE,0xEB,0xF4,0x19,0x20,0x21,0x23,0x25,0x1C,0x0D,0x0E,0x02,0xFB,0xFC,0xFE,0x04,0x0C,0x20,0x24,0x28,0x2D,0x21,0x15,0x07,0xF7,0xEB,0xDF,0xD5
     631.  04:6D60  CA C0 BA B7 DE EB F4 19 20 21 23 25 1C 0D 0E 02 
     631.  04:6D70  FB FC FE 04 0C 20 24 28 2D 21 15 07 F7 EB DF D5 
     632.  04:6D80                          db 0xCF,0xC6,0xBF,0xD0,0xE1,0xE9,0xFE,0x10,0x14,0x1A,0x21,0x1F,0x16,0x16,0x0F,0x01,0x03,0x00,0xFE,0x0D,0x1C,0x20,0x27,0x2C,0x20,0x16,0x0D,0xF8,0xEF,0xE8,0xDB,0xD4
     632.  04:6D80  CF C6 BF D0 E1 E9 FE 10 14 1A 21 1F 16 16 0F 01 
     632.  04:6D90  03 00 FE 0D 1C 20 27 2C 20 16 0D F8 EF E8 DB D4 
     633.  04:6DA0                          db 0xE1,0xDA,0xE0,0xE0,0xE3,0xF0,0xF5,0xFD,0x09,0x0E,0x14,0x18,0x17,0x15,0x11,0x0B,0x07,0x05,0x06,0x09,0x0B,0x0E,0x12,0x10,0x0A,0x05,0x01,0xFC,0xF6,0xF2,0xEB,0xE6
     633.  04:6DA0  E1 DA E0 E0 E3 F0 F5 FD 09 0E 14 18 17 15 11 0B 
     633.  04:6DB0  07 05 06 09 0B 0E 12 10 0A 05 01 FC F6 F2 EB E6 
     634.  04:6DC0                          db 0xF3,0xF3,0xF5,0xF5,0xF7,0xFA,0xFC,0xFE,0x01,0x02,0x03,0x06,0x06,0x07,0x08,0x08,0x09,0x08,0x06,0x07,0x07,0x03,0x04,0x03,0xFE,0x01,0xFC,0xFB,0xFC,0xF7,0xF6,0xF6
     634.  04:6DC0  F3 F3 F5 F5 F7 FA FC FE 01 02 03 06 06 07 08 08 
     634.  04:6DD0  09 08 06 07 07 03 04 03 FE 01 FC FB FC F7 F6 F6 
     635.  04:6DE0                          db 0x00,0xFE,0xFD,0x00,0x00,0xFE,0xFE,0xFF,0x00,0x03,0x02,0xFE,0x00,0x06,0x03,0xFF,0x04,0x06,0x00,0xFE,0x04,0x04,0xFE,0xFE,0x03,0x01,0xFD,0xFE,0x01,0xFE,0xFD,0xFF
     635.  04:6DE0  00 FE FD 00 00 FE FE FF 00 03 02 FE 00 06 03 FF 
     635.  04:6DF0  04 06 00 FE 04 04 FE FE 03 01 FD FE 01 FE FD FF 
     636.  04:6E00                          db 0xFF,0x00,0xFF,0x01,0xFF,0x00,0xFF,0x01,0x00,0x00,0x00,0x00,0x00,0xFF,0x00,0x00,0x05,0x04,0x02,0x01,0xFE,0x01,0xFD,0x01,0xFE,0x00,0xFF,0x00,0xFE,0x00,0xFF,0x01
     636.  04:6E00  FF 00 FF 01 FF 00 FF 01 00 00 00 00 00 FF 00 00 
     636.  04:6E10  05 04 02 01 FE 01 FD 01 FE 00 FF 00 FE 00 FF 01 
     637.  04:6E20                          db 0x03,0x04,0x03,0x02,0x00,0xFE,0xFC,0xFA,0xF7,0xF5,0xF4,0xF3,0xFB,0x03,0x07,0x0A,0x0D,0x0D,0x0D,0x0B,0x07,0x04,0x03,0xFE,0xFE,0x00,0x04,0x05,0x03,0x03,0x03,0x03
     637.  04:6E20  03 04 03 02 00 FE FC FA F7 F5 F4 F3 FB 03 07 0A 
     637.  04:6E30  0D 0D 0D 0B 07 04 03 FE FE 00 04 05 03 03 03 03 
     638.  04:6E40                          db 0x1D,0x13,0x08,0xFA,0xF2,0xEE,0xE5,0xDD,0xD5,0xCE,0xCA,0xCE,0xDE,0xEE,0xFF,0x10,0x18,0x1E,0x1F,0x19,0x12,0x09,0x00,0xFC,0xFA,0xFC,0x04,0x0E,0x1B,0x22,0x26,0x25
     638.  04:6E40  1D 13 08 FA F2 EE E5 DD D5 CE CA CE DE EE FF 10 
     638.  04:6E50  18 1E 1F 19 12 09 00 FC FA FC 04 0E 1B 22 26 25 
     639.  04:6E60                          db 0x18,0x0D,0x03,0xF5,0xF1,0xEB,0xE5,0xE1,0xD4,0xCF,0xCA,0xD1,0xE7,0xF3,0x07,0x17,0x1B,0x20,0x1F,0x14,0x0F,0x02,0xF9,0xF8,0xF5,0xFC,0x08,0x13,0x22,0x28,0x27,0x24
     639.  04:6E60  18 0D 03 F5 F1 EB E5 E1 D4 CF CA D1 E7 F3 07 17 
     639.  04:6E70  1B 20 1F 14 0F 02 F9 F8 F5 FC 08 13 22 28 27 24 
     640.  04:6E80                          db 0x14,0x09,0x01,0xF4,0xF3,0xED,0xE7,0xE2,0xD8,0xD1,0xCC,0xCE,0xE6,0xF1,0x03,0x16,0x1B,0x20,0x20,0x14,0x0F,0x03,0xF9,0xFA,0xF7,0xFF,0x0C,0x14,0x22,0x26,0x24,0x21
     640.  04:6E80  14 09 01 F4 F3 ED E7 E2 D8 D1 CC CE E6 F1 03 16 
     640.  04:6E90  1B 20 20 14 0F 03 F9 FA F7 FF 0C 14 22 26 24 21 
     641.  04:6EA0                          db 0x10,0x08,0xFF,0xF8,0xF4,0xF1,0xEE,0xE9,0xE6,0xDA,0xD8,0xD9,0xE5,0xEE,0xFB,0x07,0x0E,0x14,0x16,0x13,0x11,0x0B,0x06,0x03,0x02,0x05,0x0C,0x12,0x18,0x1B,0x1A,0x16
     641.  04:6EA0  10 08 FF F8 F4 F1 EE E9 E6 DA D8 D9 E5 EE FB 07 
     641.  04:6EB0  0E 14 16 13 11 0B 06 03 02 05 0C 12 18 1B 1A 16 
     642.  04:6EC0                          db 0x06,0x03,0x00,0xFF,0xF6,0xF3,0xF2,0xF0,0xEF,0xEE,0xEF,0xF1,0xF3,0xF7,0xFA,0xFD,0x01,0x02,0x05,0x06,0x05,0x08,0x08,0x08,0x0C,0x0C,0x0E,0x0F,0x0D,0x0D,0x0B,0x07
     642.  04:6EC0  06 03 00 FF F6 F3 F2 F0 EF EE EF F1 F3 F7 FA FD 
     642.  04:6ED0  01 02 05 06 05 08 08 08 0C 0C 0E 0F 0D 0D 0B 07 
     643.  04:6EE0                          db 0x00,0x00,0xFE,0xFF,0xFD,0xFE,0xFC,0xFD,0xFD,0xFD,0xFD,0xFF,0xFE,0xFF,0xFE,0x00,0xFF,0xFF,0xFE,0x01,0x00,0x02,0x02,0x03,0x02,0x03,0x01,0x03,0x01,0xFF,0x03,0x02
     643.  04:6EE0  00 00 FE FF FD FE FC FD FD FD FD FF FE FF FE 00 
     643.  04:6EF0  FF FF FE 01 00 02 02 03 02 03 01 03 01 FF 03 02 
     644.  04:6F00                          db 0x00,0x00,0x00,0x00,0x00,0x00,0xFF,0x00,0xFF,0x00,0x00,0x00,0x00,0x00,0x00,0x00,0x00,0xFF,0xFF,0x00,0x01,0x00,0x00,0x01,0x00,0x01,0x01,0xFF,0xFF,0x00,0x00,0x01
     644.  04:6F00  00 00 00 00 00 00 FF 00 FF 00 00 00 00 00 00 00 
     644.  04:6F10  00 FF FF 00 01 00 00 01 00 01 01 FF FF 00 00 01 
     645.  04:6F20                          db 0xFD,0xFF,0x01,0xFE,0x03,0xFF,0xFE,0x05,0xFA,0x03,0x04,0xFB,0x05,0xFD,0xFF,0x00,0x01,0xFF,0x01,0x01,0x02,0xFC,0x05,0xFF,0xFC,0x02,0x02,0xF9,0x06,0xFD,0xFF,0x04
     645.  04:6F20  FD FF 01 FE 03 FF FE 05 FA 03 04 FB 05 FD FF 00 
     645.  04:6F30  01 FF 01 01 02 FC 05 FF FC 02 02 F9 06 FD FF 04 
     646.  04:6F40                          db 0x01,0xFF,0x00,0xFF,0x00,0x02,0xFB,0x08,0xF9,0x04,0x03,0xF8,0x08,0xFA,0x02,0x01,0xFE,0x06,0xFC,0x01,0x02,0xFC,0x04,0xFC,0x05,0xFD,0x00,0x01,0xFD,0x01,0x00,0xFF
     646.  04:6F40  01 FF 00 FF 00 02 FB 08 F9 04 03 F8 08 FA 02 01 
     646.  04:6F50  FE 06 FC 01 02 FC 04 FC 05 FD 00 01 FD 01 00 FF 
     647.  04:6F60                          db 0x06,0xFC,0xFE,0x01,0x04,0xF9,0x02,0x09,0xF6,0x02,0x08,0xFC,0xFC,0x04,0x03,0xF8,0x03,0x04,0xFD,0xFC,0x07,0xFE,0xFD,0x04,0x00,0xFD,0x03,0x01,0xFD,0x02,0x03,0xF9
     647.  04:6F60  06 FC FE 01 04 F9 02 09 F6 02 08 FC FC 04 03 F8 
     647.  04:6F70  03 04 FD FC 07 FE FD 04 00 FD 03 01 FD 02 03 F9 
     648.  04:6F80                          db 0x05,0xFD,0xFC,0x05,0x02,0xF9,0x04,0x04,0xFB,0xFF,0x05,0xFF,0xFB,0x06,0xFF,0xFD,0x02,0xFF,0x01,0xFF,0xFF,0x03,0x00,0xFE,0x01,0x03,0xFD,0x02,0xFF,0x02,0xFD,0xFE
     648.  04:6F80  05 FD FC 05 02 F9 04 04 FB FF 05 FF FB 06 FF FD 
     648.  04:6F90  02 FF 01 FF FF 03 00 FE 01 03 FD 02 FF 02 FD FE 
     649.  04:6FA0                          db 0x02,0xFE,0xFE,0x00,0x01,0xFD,0xFF,0x03,0xFF,0xFF,0x02,0xFF,0x00,0x01,0xFD,0x01,0x00,0xFF,0xFF,0x01,0x01,0xFF,0x01,0x00,0x01,0xFE,0x00,0x03,0xFF,0x00,0xFF,0x00
     649.  04:6FA0  02 FE FE 00 01 FD FF 03 FF FF 02 FF 00 01 FD 01 
     649.  04:6FB0  00 FF FF 01 01 FF 01 00 01 FE 00 03 FF 00 FF 00 
     650.  04:6FC0                          db 0x02,0xFF,0xFD,0x00,0x01,0x00,0x00,0x00,0x00,0x00,0xFE,0x00,0x01,0x01,0xFF,0xFF,0x01,0x00,0x00,0x00,0xFF,0x00,0x02,0x00,0xFE,0xFF,0x02,0x02,0xFF,0xFE,0x00,0x01
     650.  04:6FC0  02 FF FD 00 01 00 00 00 00 00 FE 00 01 01 FF FF 
     650.  04:6FD0  01 00 00 00 FF 00 02 00 FE FF 02 02 FF FE 00 01 
     651.  04:6FE0                          db 0xF2,0xEC,0xE8,0xEE,0xF8,0xFA,0xFD,0x03,0x05,0x01,0xFE,0xFF,0x00,0xFE,0xFE,0x03,0x08,0x0B,0x11,0x14,0x14,0x14,0x11,0x0D,0x09,0x04,0x05,0x02,0x00,0xFE,0xFC,0xF9
     651.  04:6FE0  F2 EC E8 EE F8 FA FD 03 05 01 FE FF 00 FE FE 03 
     651.  04:6FF0  08 0B 11 14 14 14 11 0D 09 04 05 02 00 FE FC F9 
     652.  04:7000                          db 0xDA,0xC4,0xB6,0xBC,0xD9,0x00,0x18,0x1B,0x1F,0x26,0x23,0x15,0xFD,0xEE,0xEF,0xF3,0xF7,0x03,0x13,0x24,0x2F,0x30,0x25,0x11,0x06,0x04,0x04,0xFE,0xF6,0xF3,0xF2,0xEB
     652.  04:7000  DA C4 B6 BC D9 00 18 1B 1F 26 23 15 FD EE EF F3 
     652.  04:7010  F7 03 13 24 2F 30 25 11 06 04 04 FE F6 F3 F2 EB 
     653.  04:7020                          db 0xCB,0xB5,0xA7,0xA5,0xD2,0x1C,0x26,0x24,0x3B,0x24,0x03,0xF8,0xF2,0xEA,0xE3,0xFC,0x10,0x0F,0x23,0x2D,0x25,0x28,0x1D,0x0E,0x05,0x05,0x0D,0x09,0xFE,0xFE,0xF7,0xE1
     653.  04:7020  CB B5 A7 A5 D2 1C 26 24 3B 24 03 F8 F2 EA E3 FC 
     653.  04:7030  10 0F 23 2D 25 28 1D 0E 05 05 0D 09 FE FE F7 E1 
     654.  04:7040                          db 0xC8,0xB7,0xAF,0xB1,0xE5,0x16,0x17,0x31,0x2A,0x07,0x01,0xF6,0xEE,0xF1,0x01,0x10,0x10,0x1C,0x1D,0x1B,0x21,0x20,0x1A,0x0F,0x0E,0x10,0x0A,0x0B,0x05,0xF9,0xEF,0xDB
     654.  04:7040  C8 B7 AF B1 E5 16 17 31 2A 07 01 F6 EE F1 01 10 
     654.  04:7050  10 1C 1D 1B 21 20 1A 0F 0E 10 0A 0B 05 F9 EF DB 
     655.  04:7060                          db 0xCE,0xC0,0xBA,0xB7,0xEC,0x02,0x0F,0x2F,0x1A,0x11,0x0A,0xF5,0xF6,0xFA,0x00,0x0F,0x17,0x14,0x17,0x1C,0x1D,0x18,0x17,0x10,0x09,0x0C,0x09,0x05,0x01,0xFB,0xF1,0xE5
     655.  04:7060  CE C0 BA B7 EC 02 0F 2F 1A 11 0A F5 F6 FA 00 0F 
     655.  04:7070  17 14 17 1C 1D 18 17 10 09 0C 09 05 01 FB F1 E5 
     656.  04:7080                          db 0xCB,0xBD,0xB6,0xD0,0xF4,0x00,0x25,0x21,0x1C,0x16,0xFE,0xFD,0xF3,0xF7,0x05,0x0B,0x15,0x18,0x1F,0x21,0x1D,0x1A,0x11,0x0C,0x09,0x07,0x07,0x01,0xFE,0xF8,0xEA,0xDB
     656.  04:7080  CB BD B6 D0 F4 00 25 21 1C 16 FE FD F3 F7 05 0B 
     656.  04:7090  15 18 1F 21 1D 1A 11 0C 09 07 07 01 FE F8 EA DB 
     657.  04:70A0                          db 0xC7,0xB6,0xC4,0xE1,0xEF,0x16,0x1C,0x23,0x22,0x0F,0x0B,0xFA,0xF7,0xFA,0xFE,0x0A,0x11,0x1E,0x28,0x22,0x23,0x18,0x0D,0x09,0x03,0x03,0xFC,0xFD,0xF9,0xF3,0xE5,0xD3
     657.  04:70A0  C7 B6 C4 E1 EF 16 1C 23 22 0F 0B FA F7 FA FE 0A 
     657.  04:70B0  11 1E 28 22 23 18 0D 09 03 03 FC FD F9 F3 E5 D3 
     658.  04:70C0                          db 0xCD,0xBA,0xC4,0xDF,0xE4,0x10,0x12,0x24,0x25,0x17,0x17,0x00,0xFE,0xF8,0xFA,0x02,0x06,0x19,0x25,0x26,0x2C,0x1E,0x15,0x0B,0x01,0xFC,0xF6,0xF7,0xF4,0xF2,0xE6,0xD8
     658.  04:70C0  CD BA C4 DF E4 10 12 24 25 17 17 00 FE F8 FA 02 
     658.  04:70D0  06 19 25 26 2C 1E 15 0B 01 FC F6 F7 F4 F2 E6 D8 
     659.  04:70E0                          db 0xD2,0xC8,0xC3,0xDD,0xDF,0xFF,0x0B,0x17,0x24,0x1A,0x21,0x0E,0x0A,0xFE,0xFB,0xFE,0xFF,0x0A,0x1A,0x20,0x2E,0x27,0x22,0x18,0x09,0x02,0xF4,0xF1,0xED,0xE9,0xE4,0xDB
     659.  04:70E0  D2 C8 C3 DD DF FF 0B 17 24 1A 21 0E 0A FE FB FE 
     659.  04:70F0  FF 0A 1A 20 2E 27 22 18 09 02 F4 F1 ED E9 E4 DB 
     660.  04:7100                          db 0xCF,0xC7,0xC9,0xDF,0xE2,0x02,0x06,0x19,0x1C,0x1D,0x1D,0x13,0x0D,0x04,0x00,0xFE,0xFE,0x05,0x14,0x1B,0x2A,0x27,0x2B,0x1D,0x16,0x04,0xF8,0xF1,0xE8,0xE2,0xDC,0xD6
     660.  04:7100  CF C7 C9 DF E2 02 06 19 1C 1D 1D 13 0D 04 00 FE 
     660.  04:7110  FE 05 14 1B 2A 27 2B 1D 16 04 F8 F1 E8 E2 DC D6 
     661.  04:7120                          db 0xC7,0xC6,0xD3,0xE1,0xEF,0x07,0x0A,0x1F,0x19,0x22,0x19,0x15,0x0C,0x03,0x01,0xFD,0xFF,0x05,0x14,0x1C,0x28,0x27,0x28,0x1E,0x14,0x04,0xF8,0xED,0xE1,0xDD,0xD3,0xD1
     661.  04:7120  C7 C6 D3 E1 EF 07 0A 1F 19 22 19 15 0C 03 01 FD 
     661.  04:7130  FF 05 14 1C 28 27 28 1E 14 04 F8 ED E1 DD D3 D1 
     662.  04:7140                          db 0xC3,0xC1,0xD8,0xDC,0xF7,0x02,0x12,0x1E,0x1D,0x26,0x1A,0x19,0x0C,0x07,0x00,0xFE,0xFF,0x07,0x10,0x1D,0x22,0x2A,0x26,0x23,0x16,0x06,0xF9,0xEB,0xDF,0xD7,0xCD,0xC9
     662.  04:7140  C3 C1 D8 DC F7 02 12 1E 1D 26 1A 19 0C 07 00 FE 
     662.  04:7150  FF 07 10 1D 22 2A 26 23 16 06 F9 EB DF D7 CD C9 
     663.  04:7160                          db 0xDA,0xE3,0xE4,0xEE,0xF5,0xFC,0x15,0x19,0x21,0x1E,0x1D,0x15,0x10,0x09,0x04,0x01,0x03,0x08,0x0E,0x14,0x18,0x19,0x16,0x10,0x08,0xFF,0xF8,0xF0,0xEA,0xE5,0xE0,0xDD
     663.  04:7160  DA E3 E4 EE F5 FC 15 19 21 1E 1D 15 10 09 04 01 
     663.  04:7170  03 08 0E 14 18 19 16 10 08 FF F8 F0 EA E5 E0 DD 
     664.  04:7180                          db 0xF7,0xF9,0xFA,0xFC,0xFE,0xFF,0x01,0x03,0x06,0x07,0x08,0x08,0x08,0x07,0x06,0x06,0x08,0x09,0x09,0x09,0x08,0x07,0x05,0x04,0x03,0x01,0xFE,0xFC,0xF9,0xF8,0xF6,0xF6
     664.  04:7180  F7 F9 FA FC FE FF 01 03 06 07 08 08 08 07 06 06 
     664.  04:7190  08 09 09 09 08 07 05 04 03 01 FE FC F9 F8 F6 F6 
     665.  04:71A0                          db 0xF5,0xFB,0xFC,0xFC,0xFD,0xFE,0x02,0x01,0x00,0xFC,0xFC,0xFB,0xFB,0xFE,0xFF,0x03,0x05,0x0A,0x0B,0x0D,0x0B,0x0A,0x07,0x04,0x01,0xFE,0xFB,0xF8,0xF5,0xF2,0xF2,0xF2
     665.  04:71A0  F5 FB FC FC FD FE 02 01 00 FC FC FB FB FE FF 03 
     665.  04:71B0  05 0A 0B 0D 0B 0A 07 04 01 FE FB F8 F5 F2 F2 F2 
     666.  04:71C0                          db 0xE5,0xEF,0xF9,0x05,0x0F,0x18,0x1C,0x1E,0x1C,0x18,0x12,0x0C,0x08,0x05,0x04,0x04,0x05,0x08,0x0A,0x0C,0x0A,0x07,0x04,0xFE,0xFA,0xF2,0xEC,0xE5,0xE0,0xDC,0xDC,0xDF
     666.  04:71C0  E5 EF F9 05 0F 18 1C 1E 1C 18 12 0C 08 05 04 04 
     666.  04:71D0  05 08 0A 0C 0A 07 04 FE FA F2 EC E5 E0 DC DC DF 
     667.  04:71E0                          db 0xDB,0xEB,0xFC,0x0E,0x1E,0x29,0x30,0x30,0x2B,0x1D,0x14,0x0C,0x05,0x01,0x00,0x02,0x05,0x0A,0x0E,0x11,0x12,0x10,0x0A,0x02,0xF7,0xEC,0xE0,0xD6,0xCA,0xC6,0xC7,0xCF
     667.  04:71E0  DB EB FC 0E 1E 29 30 30 2B 1D 14 0C 05 01 00 02 
     667.  04:71F0  05 0A 0E 11 12 10 0A 02 F7 EC E0 D6 CA C6 C7 CF 
     668.  04:7200                          db 0xD3,0xE7,0xFC,0x0C,0x20,0x2E,0x36,0x38,0x33,0x29,0x1B,0x0E,0x03,0xFC,0xFA,0xFC,0x01,0x08,0x10,0x17,0x1B,0x1B,0x14,0x0A,0xFC,0xED,0xDC,0xCD,0xBE,0xB9,0xBB,0xC4
     668.  04:7200  D3 E7 FC 0C 20 2E 36 38 33 29 1B 0E 03 FC FA FC 
     668.  04:7210  01 08 10 17 1B 1B 14 0A FC ED DC CD BE B9 BB C4 
     669.  04:7220                          db 0xD8,0xEB,0xFD,0x12,0x22,0x2F,0x33,0x34,0x2C,0x22,0x15,0x0A,0x00,0xFC,0xFA,0xFD,0x02,0x09,0x10,0x16,0x1A,0x18,0x12,0x08,0xFA,0xEC,0xDD,0xD1,0xC4,0xBD,0xBF,0xCA
     669.  04:7220  D8 EB FD 12 22 2F 33 34 2C 22 15 0A 00 FC FA FD 
     669.  04:7230  02 09 10 16 1A 18 12 08 FA EC DD D1 C4 BD BF CA 
     670.  04:7240                          db 0xDD,0xEA,0xF8,0x07,0x14,0x1F,0x26,0x29,0x26,0x1F,0x17,0x0E,0x06,0x00,0xFD,0xFE,0x02,0x08,0x0F,0x14,0x18,0x17,0x0C,0x03,0xF8,0xED,0xE1,0xD6,0xCF,0xCC,0xCE,0xD4
     670.  04:7240  DD EA F8 07 14 1F 26 29 26 1F 17 0E 06 00 FD FE 
     670.  04:7250  02 08 0F 14 18 17 0C 03 F8 ED E1 D6 CF CC CE D4 
     671.  04:7260                          db 0xE2,0x06,0x23,0x2C,0x1F,0x06,0xF8,0xFE,0x11,0x20,0x21,0x0E,0xF1,0xD6,0xC1,0xC4,0xE2,0x07,0x24,0x2C,0x1D,0x04,0xF7,0x01,0x12,0x20,0x1F,0x0C,0xF0,0xD6,0xC2,0xC5
     671.  04:7260  E2 06 23 2C 1F 06 F8 FE 11 20 21 0E F1 D6 C1 C4 
     671.  04:7270  E2 07 24 2C 1D 04 F7 01 12 20 1F 0C F0 D6 C2 C5 
     672.  04:7280                          db 0xE3,0x0A,0x27,0x2C,0x1A,0x00,0xF3,0xFE,0x16,0x28,0x26,0x0F,0xEF,0xD3,0xC0,0xC1,0xE2,0x0B,0x27,0x2C,0x19,0xFD,0xF1,0xFE,0x15,0x26,0x24,0x0E,0xEF,0xD3,0xBF,0xC2
     672.  04:7280  E3 0A 27 2C 1A 00 F3 FE 16 28 26 0F EF D3 C0 C1 
     672.  04:7290  E2 0B 27 2C 19 FD F1 FE 15 26 24 0E EF D3 BF C2 
     673.  04:72A0                          db 0xBE,0xD4,0xDE,0xFC,0x09,0x1E,0x25,0x29,0x29,0x1D,0x15,0x02,0xFB,0xEE,0xF2,0xF5,0x03,0x0D,0x1D,0x28,0x2E,0x2E,0x27,0x1D,0x0E,0xFB,0xED,0xDE,0xD3,0xCA,0xC4,0xC0
     673.  04:72A0  BE D4 DE FC 09 1E 25 29 29 1D 15 02 FB EE F2 F5 
     673.  04:72B0  03 0D 1D 28 2E 2E 27 1D 0E FB ED DE D3 CA C4 C0 
     674.  04:72C0                          db 0xBD,0xD4,0xE1,0xFB,0x10,0x1D,0x29,0x24,0x24,0x12,0x09,0xF6,0xF1,0xED,0xF3,0x00,0x0F,0x22,0x2B,0x34,0x31,0x2A,0x1D,0x0F,0x03,0xF2,0xE9,0xE0,0xD8,0xD1,0xCA,0xC6
     674.  04:72C0  BD D4 E1 FB 10 1D 29 24 24 12 09 F6 F1 ED F3 00 
     674.  04:72D0  0F 22 2B 34 31 2A 1D 0F 03 F2 E9 E0 D8 D1 CA C6 
     675.  04:72E0                          db 0xB4,0xCF,0xDE,0xFC,0x17,0x21,0x31,0x23,0x24,0x0A,0x00,0xED,0xEB,0xEC,0xF7,0x0A,0x19,0x2B,0x32,0x34,0x2D,0x20,0x13,0x05,0xFF,0xF3,0xEE,0xEA,0xE0,0xDA,0xCB,0xC6
     675.  04:72E0  B4 CF DE FC 17 21 31 23 24 0A 00 ED EB EC F7 0A 
     675.  04:72F0  19 2B 32 34 2D 20 13 05 FF F3 EE EA E0 DA CB C6 
     676.  04:7300                          db 0xA8,0xC5,0xDD,0xFE,0x23,0x2B,0x3C,0x25,0x21,0x01,0xF4,0xE4,0xE3,0xED,0xFB,0x16,0x24,0x34,0x36,0x31,0x25,0x16,0x0A,0x02,0xFF,0xFB,0xF7,0xF4,0xE6,0xD9,0xC6,0xBB
     676.  04:7300  A8 C5 DD FE 23 2B 3C 25 21 01 F4 E4 E3 ED FB 16 
     676.  04:7310  24 34 36 31 25 16 0A 02 FF FB F7 F4 E6 D9 C6 BB 
     677.  04:7320                          db 0xB0,0xB8,0xDA,0xEC,0x1A,0x22,0x39,0x2B,0x25,0x10,0xFB,0xED,0xE3,0xEA,0xF2,0x09,0x1C,0x2C,0x36,0x36,0x2E,0x1E,0x0F,0x04,0xFF,0xFC,0xF5,0xF5,0xEB,0xDF,0xCE,0xC1
     677.  04:7320  B0 B8 DA EC 1A 22 39 2B 25 10 FB ED E3 EA F2 09 
     677.  04:7330  1C 2C 36 36 2E 1E 0F 04 FF FC F5 F5 EB DF CE C1 
     678.  04:7340                          db 0xB6,0xC2,0xDF,0xEE,0x18,0x1B,0x34,0x26,0x26,0x14,0x01,0xF6,0xE6,0xEC,0xED,0x01,0x12,0x22,0x34,0x33,0x34,0x28,0x1B,0x0F,0xFF,0xFA,0xEC,0xEE,0xE1,0xDB,0xCC,0xC4
     678.  04:7340  B6 C2 DF EE 18 1B 34 26 26 14 01 F6 E6 EC ED 01 
     678.  04:7350  12 22 34 33 34 28 1B 0F FF FA EC EE E1 DB CC C4 
     679.  04:7360                          db 0xB7,0xD5,0xE1,0xFC,0x16,0x1C,0x30,0x21,0x26,0x12,0x07,0xF9,0xED,0xEF,0xEF,0xFF,0x0D,0x1D,0x2C,0x2F,0x34,0x2B,0x21,0x13,0x07,0xF6,0xE6,0xE6,0xD7,0xD4,0xC6,0xC4
     679.  04:7360  B7 D5 E1 FC 16 1C 30 21 26 12 07 F9 ED EF EF FF 
     679.  04:7370  0D 1D 2C 2F 34 2B 21 13 07 F6 E6 E6 D7 D4 C6 C4 
     680.  04:7380                          db 0xBB,0xD2,0xE4,0xF8,0x14,0x17,0x2C,0x22,0x25,0x19,0x0C,0x03,0xF4,0xF2,0xF1,0xF9,0x06,0x12,0x22,0x2A,0x32,0x2E,0x28,0x1C,0x0E,0xFA,0xE9,0xE1,0xD0,0xCD,0xC0,0xC1
     680.  04:7380  BB D2 E4 F8 14 17 2C 22 25 19 0C 03 F4 F2 F1 F9 
     680.  04:7390  06 12 22 2A 32 2E 28 1C 0E FA E9 E1 D0 CD C0 C1 
     681.  04:73A0                          db 0xBE,0xDC,0xE4,0x05,0x0F,0x1F,0x28,0x24,0x24,0x18,0x0E,0x04,0xF7,0xF7,0xF4,0xFD,0x07,0x14,0x21,0x29,0x30,0x2C,0x27,0x19,0x0A,0xF3,0xEB,0xD7,0xD0,0xC4,0xBE,0xBB
     681.  04:73A0  BE DC E4 05 0F 1F 28 24 24 18 0E 04 F7 F7 F4 FD 
     681.  04:73B0  07 14 21 29 30 2C 27 19 0A F3 EB D7 D0 C4 BE BB 
     682.  04:73C0                          db 0xC4,0xD6,0xE0,0xF6,0x01,0x0E,0x18,0x18,0x1F,0x1A,0x18,0x12,0x0B,0x0A,0x04,0x07,0x06,0x0D,0x19,0x21,0x25,0x28,0x22,0x19,0x0A,0xFD,0xF0,0xE1,0xD7,0xCB,0xC5,0xC0
     682.  04:73C0  C4 D6 E0 F6 01 0E 18 18 1F 1A 18 12 0B 0A 04 07 
     682.  04:73D0  06 0D 19 21 25 28 22 19 0A FD F0 E1 D7 CB C5 C0 
     683.  04:73E0                          db 0xE4,0xEA,0xEE,0xF3,0xF9,0xFB,0x00,0x02,0x06,0x08,0x0A,0x0B,0x0B,0x0B,0x0D,0x0D,0x11,0x11,0x13,0x14,0x12,0x12,0x0C,0x07,0x01,0xF7,0xF4,0xEA,0xE6,0xE3,0xE0,0xE3
     683.  04:73E0  E4 EA EE F3 F9 FB 00 02 06 08 0A 0B 0B 0B 0D 0D 
     683.  04:73F0  11 11 13 14 12 12 0C 07 01 F7 F4 EA E6 E3 E0 E3 
     684.  04:7400                          db 0xFE,0xFD,0xFC,0x01,0x02,0xFD,0x02,0xFE,0xFC,0x02,0x02,0x00,0x00,0xFF,0x01,0x04,0x00,0xFF,0x00,0x01,0x01,0x02,0xFE,0xFE,0x01,0x00,0x02,0xFD,0xFB,0xFD,0x00,0x00
     684.  04:7400  FE FD FC 01 02 FD 02 FE FC 02 02 00 00 FF 01 04 
     684.  04:7410  00 FF 00 01 01 02 FE FE 01 00 02 FD FB FD 00 00 
     685.  04:7420                          db 0xFE,0x01,0xFD,0x03,0x03,0xF8,0x07,0x03,0xF3,0x0A,0xFE,0xF9,0x08,0xFC,0xFD,0x05,0xFD,0x02,0xFE,0x00,0x04,0xFC,0x01,0x03,0xFD,0x08,0xFC,0xFB,0x0A,0xF6,0xFD,0x04
     685.  04:7420  FE 01 FD 03 03 F8 07 03 F3 0A FE F9 08 FC FD 05 
     685.  04:7430  FD 02 FE 00 04 FC 01 03 FD 08 FC FB 0A F6 FD 04 
     686.  04:7440                          db 0x06,0xFB,0xFA,0x04,0x08,0xF5,0xFE,0x0A,0xFE,0xFB,0xFE,0x06,0xFF,0x02,0xFB,0x00,0x04,0x01,0x00,0xFD,0x07,0x00,0xF8,0xFC,0x0F,0xFA,0xF0,0x0B,0x0D,0xF7,0xF5,0x08
     686.  04:7440  06 FB FA 04 08 F5 FE 0A FE FB FE 06 FF 02 FB 00 
     686.  04:7450  04 01 00 FD 07 00 F8 FC 0F FA F0 0B 0D F7 F5 08 
     687.  04:7460                          db 0xFD,0xFE,0x07,0xFB,0xFE,0x01,0x04,0xF9,0x08,0xF8,0x01,0xFE,0x09,0xF8,0x01,0x03,0xFA,0x09,0xFE,0xF4,0x08,0x04,0xFF,0xF7,0x0B,0xFC,0xFD,0x04,0x07,0xF1,0x08,0x02
     687.  04:7460  FD FE 07 FB FE 01 04 F9 08 F8 01 FE 09 F8 01 03 
     687.  04:7470  FA 09 FE F4 08 04 FF F7 0B FC FD 04 07 F1 08 02 
     688.  04:7480                          db 0x06,0xF9,0x00,0x03,0x00,0x02,0x00,0xFC,0x00,0x07,0xFA,0x01,0x05,0x01,0xF6,0x0D,0xF8,0x03,0x04,0xF5,0x05,0x08,0xF9,0xFB,0x03,0x03,0xFD,0x00,0x03,0xFC,0xFF,0x03
     688.  04:7480  06 F9 00 03 00 02 00 FC 00 07 FA 01 05 01 F6 0D 
     688.  04:7490  F8 03 04 F5 05 08 F9 FB 03 03 FD 00 03 FC FF 03 
     689.  04:74A0                          db 0x05,0x03,0xFE,0x00,0xF7,0x0B,0x01,0xF7,0x05,0x05,0xFA,0xFF,0x05,0x02,0xF5,0x09,0xFD,0xFD,0x09,0xF4,0x02,0x08,0xFE,0xFC,0xFA,0x0E,0xF7,0xFD,0x0A,0xFB,0xFD,0xFF
     689.  04:74A0  05 03 FE 00 F7 0B 01 F7 05 05 FA FF 05 02 F5 09 
     689.  04:74B0  FD FD 09 F4 02 08 FE FC FA 0E F7 FD 0A FB FD FF 
     690.  04:74C0                          db 0x03,0x03,0xFD,0xFD,0xFF,0x0A,0xFE,0xF3,0x0D,0x00,0xF7,0x03,0x07,0xFB,0xFB,0x05,0x00,0x02,0xFE,0xFB,0x03,0x05,0x00,0xF9,0x06,0x06,0xF4,0x03,0x06,0xFD,0xFE,0xFD
     690.  04:74C0  03 03 FD FD FF 0A FE F3 0D 00 F7 03 07 FB FB 05 
     690.  04:74D0  00 02 FE FB 03 05 00 F9 06 06 F4 03 06 FD FE FD 
     691.  04:74E0                          db 0x01,0x02,0x00,0x01,0x01,0x01,0xFF,0x00,0x00,0xFE,0xFF,0x00,0xFE,0xFD,0x00,0xFE,0xFF,0x01,0xFF,0x00,0x01,0x01,0x02,0x01,0x02,0x04,0x00,0x01,0x02,0x01,0x01,0x00
     691.  04:74E0  01 02 00 01 01 01 FF 00 00 FE FF 00 FE FD 00 FE 
     691.  04:74F0  FF 01 FF 00 01 01 02 01 02 04 00 01 02 01 01 00 
     692.  04:7500                          db 0x0E,0x0C,0x09,0x04,0x01,0xFF,0xF8,0xF5,0xF1,0xEB,0xE6,0xE1,0xDF,0xE0,0xE4,0xEA,0xEF,0xF7,0xFB,0xFE,0x11,0x12,0x15,0x13,0x13,0x14,0x14,0x14,0x12,0x14,0x13,0x10
     692.  04:7500  0E 0C 09 04 01 FF F8 F5 F1 EB E6 E1 DF E0 E4 EA 
     692.  04:7510  EF F7 FB FE 11 12 15 13 13 14 14 14 12 14 13 10 
     693.  04:7520                          db 0x15,0x13,0x0F,0x08,0x07,0x07,0x05,0x01,0xF3,0xE4,0xD2,0xBD,0xAC,0xB0,0xC1,0xD3,0xE9,0xFF,0x0A,0x13,0x17,0x16,0x19,0x1A,0x1C,0x20,0x20,0x1E,0x1D,0x1A,0x19,0x19
     693.  04:7520  15 13 0F 08 07 07 05 01 F3 E4 D2 BD AC B0 C1 D3 
     693.  04:7530  E9 FF 0A 13 17 16 19 1A 1C 20 20 1E 1D 1A 19 19 
     694.  04:7540                          db 0x05,0x09,0x0E,0x13,0x16,0x16,0x10,0x05,0xF6,0xE1,0xCD,0xBA,0xAE,0xAE,0xB5,0xC4,0xD9,0xF3,0x0D,0x1F,0x2D,0x35,0x36,0x35,0x2D,0x20,0x15,0x0C,0x05,0x02,0x02,0x03
     694.  04:7540  05 09 0E 13 16 16 10 05 F6 E1 CD BA AE AE B5 C4 
     694.  04:7550  D9 F3 0D 1F 2D 35 36 35 2D 20 15 0C 05 02 02 03 
     695.  04:7560                          db 0xFF,0x07,0x10,0x18,0x1D,0x1F,0x1A,0x0F,0xFF,0xEB,0xD5,0xBF,0xAC,0xA6,0xA9,0xB4,0xCA,0xE6,0x02,0x1C,0x35,0x43,0x47,0x45,0x3B,0x29,0x17,0x08,0xFD,0xF6,0xF7,0xFA
     695.  04:7560  FF 07 10 18 1D 1F 1A 0F FF EB D5 BF AC A6 A9 B4 
     695.  04:7570  CA E6 02 1C 35 43 47 45 3B 29 17 08 FD F6 F7 FA 
     696.  04:7580                          db 0x01,0x07,0x0E,0x16,0x1C,0x1E,0x1D,0x15,0x08,0xF7,0xE4,0xCF,0xBC,0xAD,0xAD,0xB2,0xC2,0xDB,0xF9,0x12,0x26,0x38,0x40,0x3E,0x36,0x2B,0x1B,0x0B,0x01,0xFC,0xFA,0xFC
     696.  04:7580  01 07 0E 16 1C 1E 1D 15 08 F7 E4 CF BC AD AD B2 
     696.  04:7590  C2 DB F9 12 26 38 40 3E 36 2B 1B 0B 01 FC FA FC 
     697.  04:75A0                          db 0x07,0x09,0x0E,0x13,0x17,0x1A,0x18,0x14,0x0A,0xFB,0xE9,0xD8,0xC6,0xB5,0xAE,0xB8,0xC7,0xD9,0xF1,0x0C,0x1E,0x29,0x31,0x34,0x2C,0x21,0x18,0x0D,0x05,0x01,0x02,0x04
     697.  04:75A0  07 09 0E 13 17 1A 18 14 0A FB E9 D8 C6 B5 AE B8 
     697.  04:75B0  C7 D9 F1 0C 1E 29 31 34 2C 21 18 0D 05 01 02 04 
     698.  04:75C0                          db 0x0B,0x0F,0x10,0x13,0x16,0x19,0x17,0x13,0x0C,0xFF,0xED,0xDC,0xCC,0xBE,0xB4,0xB5,0xC7,0xDD,0xF1,0x06,0x1D,0x2B,0x2D,0x2B,0x28,0x1F,0x13,0x08,0x03,0x01,0x01,0x05
     698.  04:75C0  0B 0F 10 13 16 19 17 13 0C FF ED DC CC BE B4 B5 
     698.  04:75D0  C7 DD F1 06 1D 2B 2D 2B 28 1F 13 08 03 01 01 05 
     699.  04:75E0                          db 0x0D,0x11,0x12,0x14,0x17,0x16,0x11,0x0B,0x03,0xF7,0xE7,0xD7,0xCA,0xC0,0xBA,0xC2,0xD4,0xE8,0xFA,0x0D,0x1F,0x2A,0x2C,0x28,0x21,0x18,0x0D,0x04,0x00,0x00,0x03,0x07
     699.  04:75E0  0D 11 12 14 17 16 11 0B 03 F7 E7 D7 CA C0 BA C2 
     699.  04:75F0  D4 E8 FA 0D 1F 2A 2C 28 21 18 0D 04 00 00 03 07 
     700.  04:7600                          db 0x0C,0x10,0x13,0x15,0x15,0x13,0x0E,0x08,0xFF,0xF5,0xE9,0xDC,0xD0,0xC6,0xC1,0xC7,0xD6,0xE8,0xFA,0x0B,0x1C,0x27,0x2B,0x29,0x22,0x19,0x0F,0x05,0xFF,0xFF,0x02,0x07
     700.  04:7600  0C 10 13 15 15 13 0E 08 FF F5 E9 DC D0 C6 C1 C7 
     700.  04:7610  D6 E8 FA 0B 1C 27 2B 29 22 19 0F 05 FF FF 02 07 
     701.  04:7620                          db 0x0E,0x11,0x13,0x14,0x14,0x10,0x0A,0x04,0xFC,0xF4,0xE9,0xDE,0xD4,0xCC,0xC7,0xCB,0xD7,0xE8,0xF9,0x08,0x18,0x24,0x29,0x27,0x20,0x17,0x0E,0x06,0x01,0x01,0x04,0x09
     701.  04:7620  0E 11 13 14 14 10 0A 04 FC F4 E9 DE D4 CC C7 CB 
     701.  04:7630  D7 E8 F9 08 18 24 29 27 20 17 0E 06 01 01 04 09 
     702.  04:7640                          db 0x0D,0x10,0x11,0x11,0x0F,0x0B,0x05,0xFF,0xF6,0xEF,0xE7,0xDF,0xD8,0xD1,0xCD,0xD0,0xDA,0xE8,0xF5,0x01,0x0E,0x1B,0x25,0x28,0x25,0x1F,0x19,0x12,0x0C,0x08,0x07,0x09
     702.  04:7640  0D 10 11 11 0F 0B 05 FF F6 EF E7 DF D8 D1 CD D0 
     702.  04:7650  DA E8 F5 01 0E 1B 25 28 25 1F 19 12 0C 08 07 09 
     703.  04:7660                          db 0x10,0x16,0x1B,0x1A,0x15,0x11,0x0E,0xFF,0xFA,0xF2,0xE7,0xDB,0xD2,0xCA,0xC1,0xBD,0xCE,0xED,0x02,0x07,0x0C,0x18,0x20,0x1D,0x19,0x1A,0x1D,0x18,0x0E,0x0A,0x0B,0x0C
     703.  04:7660  10 16 1B 1A 15 11 0E FF FA F2 E7 DB D2 CA C1 BD 
     703.  04:7670  CE ED 02 07 0C 18 20 1D 19 1A 1D 18 0E 0A 0B 0C 
     704.  04:7680                          db 0x17,0x21,0x2B,0x2C,0x18,0x0A,0x0E,0x11,0x02,0xFC,0xF5,0xDE,0xCA,0xC0,0xB3,0xAA,0xC2,0x03,0x38,0x31,0x0F,0xFA,0xE6,0xDB,0xFA,0x24,0x2B,0x21,0x1A,0x03,0xEE,0xFC
     704.  04:7680  17 21 2B 2C 18 0A 0E 11 02 FC F5 DE CA C0 B3 AA 
     704.  04:7690  C2 03 38 31 0F FA E6 DB FA 24 2B 21 1A 03 EE FC 
     705.  04:76A0                          db 0x17,0x22,0x2F,0x32,0x10,0x00,0x0E,0x0D,0x07,0x10,0x0C,0xF7,0xEB,0xDB,0xB9,0xA9,0xB1,0xCB,0x1C,0x4B,0x26,0xFA,0xE0,0xC5,0xDF,0x21,0x36,0x28,0x21,0x00,0xDD,0xF1
     705.  04:76A0  17 22 2F 32 10 00 0E 0D 07 10 0C F7 EB DB B9 A9 
     705.  04:76B0  B1 CB 1C 4B 26 FA E0 C5 DF 21 36 28 21 00 DD F1 
     706.  04:76C0                          db 0x06,0x19,0x31,0x35,0x1A,0x0A,0x0C,0x0C,0x0D,0x14,0x0B,0xF8,0xF2,0xE6,0xC7,0xB4,0xB2,0xAF,0xEF,0x45,0x38,0x0B,0xF2,0xC9,0xCC,0x0E,0x2E,0x2A,0x28,0x0C,0xE5,0xEE
     706.  04:76C0  06 19 31 35 1A 0A 0C 0C 0D 14 0B F8 F2 E6 C7 B4 
     706.  04:76D0  B2 AF EF 45 38 0B F2 C9 CC 0E 2E 2A 28 0C E5 EE 
     707.  04:76E0                          db 0x08,0x20,0x36,0x30,0x14,0x0A,0x0B,0x09,0x11,0x15,0x08,0xFD,0xF3,0xDF,0xC5,0xB0,0xAF,0xB5,0xF9,0x42,0x32,0x0A,0xED,0xC5,0xD3,0x13,0x2C,0x2C,0x29,0x04,0xE3,0xF1
     707.  04:76E0  08 20 36 30 14 0A 0B 09 11 15 08 FD F3 DF C5 B0 
     707.  04:76F0  AF B5 F9 42 32 0A ED C5 D3 13 2C 2C 29 04 E3 F1 
     708.  04:7700                          db 0xF6,0x18,0x37,0x2E,0x21,0x13,0x06,0x0C,0x15,0x10,0x0C,0x04,0xF6,0xE6,0xCC,0xB2,0xAD,0xA9,0xE0,0x39,0x36,0x19,0xFE,0xC7,0xC8,0x05,0x1D,0x2E,0x38,0x0E,0xEB,0xF0
     708.  04:7700  F6 18 37 2E 21 13 06 0C 15 10 0C 04 F6 E6 CC B2 
     708.  04:7710  AD A9 E0 39 36 19 FE C7 C8 05 1D 2E 38 0E EB F0 
     709.  04:7720                          db 0xF6,0x0A,0x30,0x30,0x2A,0x15,0x07,0x0A,0x0B,0x0F,0x13,0x08,0xFA,0xEB,0xD2,0xBC,0xB1,0xA6,0xCB,0x18,0x31,0x24,0x0D,0xDF,0xD2,0xF2,0x0B,0x20,0x2E,0x1C,0x03,0xF6
     709.  04:7720  F6 0A 30 30 2A 15 07 0A 0B 0F 13 08 FA EB D2 BC 
     709.  04:7730  B1 A6 CB 18 31 24 0D DF D2 F2 0B 20 2E 1C 03 F6 
     710.  04:7740                          db 0x03,0x0A,0x13,0x18,0x16,0x11,0x0D,0x0A,0x0A,0x0A,0x08,0x06,0x02,0xFC,0xF5,0xED,0xE5,0xDE,0xE3,0xF0,0xF3,0xF8,0xFA,0xF2,0xF2,0xFB,0x04,0x12,0x1A,0x0E,0x06,0x03
     710.  04:7740  03 0A 13 18 16 11 0D 0A 0A 0A 08 06 02 FC F5 ED 
     710.  04:7750  E5 DE E3 F0 F3 F8 FA F2 F2 FB 04 12 1A 0E 06 03 
     711.  04:7760                          db 0x0A,0x0A,0x09,0x09,0x08,0x08,0x08,0x08,0x07,0x06,0x01,0xFE,0xFC,0xFA,0xF8,0xF4,0xF3,0xF5,0xF5,0xF5,0xF7,0xF7,0xF6,0xF9,0xF9,0xFA,0xFF,0x00,0x02,0x05,0x06,0x07
     711.  04:7760  0A 0A 09 09 08 08 08 08 07 06 01 FE FC FA F8 F4 
     711.  04:7770  F3 F5 F5 F5 F7 F7 F6 F9 F9 FA FF 00 02 05 06 07 
     712.  04:7780                          db 0x06,0x07,0x07,0x06,0x06,0x06,0x05,0x05,0x04,0x03,0x02,0x01,0x00,0xFE,0xFD,0xFC,0xFB,0xFA,0xFA,0xF9,0xF9,0xF8,0xFD,0xFE,0xFF,0x00,0x01,0x02,0x03,0x04,0x05,0x06
     712.  04:7780  06 07 07 06 06 06 05 05 04 03 02 01 00 FE FD FC 
     712.  04:7790  FB FA FA F9 F9 F8 FD FE FF 00 01 02 03 04 05 06 
     713.  04:77A0                          db 0x0B,0x0C,0x0C,0x0E,0x0F,0x10,0x0F,0x0D,0x0B,0x09,0x00,0xFE,0xFC,0xFB,0xF9,0xF7,0xF4,0xF3,0xF1,0xEF,0xEF,0xF0,0xF3,0xF8,0xFD,0x00,0x02,0x04,0x07,0x09,0x09,0x09
     713.  04:77A0  0B 0C 0C 0E 0F 10 0F 0D 0B 09 00 FE FC FB F9 F7 
     713.  04:77B0  F4 F3 F1 EF EF F0 F3 F8 FD 00 02 04 07 09 09 09 
     714.  04:77C0                          db 0xF7,0x09,0x1B,0x22,0x22,0x23,0x26,0x20,0x18,0x0F,0x0E,0x10,0x11,0x0A,0x01,0xF7,0xEE,0xE1,0xD0,0xC1,0xB9,0xBB,0xD4,0xFE,0x23,0x2C,0x1D,0x09,0xFF,0xFA,0xF4,0xF0
     714.  04:77C0  F7 09 1B 22 22 23 26 20 18 0F 0E 10 11 0A 01 F7 
     714.  04:77D0  EE E1 D0 C1 B9 BB D4 FE 23 2C 1D 09 FF FA F4 F0 
     715.  04:77E0                          db 0xF2,0xF9,0x1C,0x21,0x22,0x26,0x28,0x21,0x14,0x0B,0x0C,0x10,0x0F,0x06,0xFE,0xF8,0xED,0xDA,0xC4,0xB5,0xB1,0xBB,0xD9,0x03,0x26,0x32,0x27,0x15,0x08,0x00,0xF9,0xF3
     715.  04:77E0  F2 F9 1C 21 22 26 28 21 14 0B 0C 10 0F 06 FE F8 
     715.  04:77F0  ED DA C4 B5 B1 BB D9 03 26 32 27 15 08 00 F9 F3 
     716.  04:7800                          db 0xDD,0xEA,0x04,0x1B,0x27,0x2C,0x2F,0x2E,0x24,0x12,0x02,0xFE,0x05,0x0A,0x04,0xF7,0xE8,0xD7,0xC5,0xB2,0xA6,0xB7,0xE7,0x1B,0x37,0x32,0x21,0x15,0x11,0x09,0xF7,0xE4
     716.  04:7800  DD EA 04 1B 27 2C 2F 2E 24 12 02 FE 05 0A 04 F7 
     716.  04:7810  E8 D7 C5 B2 A6 B7 E7 1B 37 32 21 15 11 09 F7 E4 
     717.  04:7820                          db 0x02,0x0C,0x13,0x1B,0x25,0x28,0x22,0x17,0x0F,0x0C,0x0E,0x0C,0x06,0x00,0xF8,0xEC,0xDC,0xCB,0xBD,0xB3,0xB5,0xCE,0xF4,0x12,0x1E,0x24,0x19,0x13,0x0E,0x04,0xFB,0xFA
     717.  04:7820  02 0C 13 1B 25 28 22 17 0F 0C 0E 0C 06 00 F8 EC 
     717.  04:7830  DC CB BD B3 B5 CE F4 12 1E 24 19 13 0E 04 FB FA 
     718.  04:7840                          db 0x09,0x0B,0x10,0x14,0x14,0x0F,0x0A,0x08,0x08,0x06,0x05,0x04,0x03,0xFF,0xFA,0xF4,0xF0,0xEC,0xE7,0xD7,0xE1,0xEF,0xFB,0x02,0x08,0x0E,0x11,0x10,0x0D,0x09,0x08,0x08
     718.  04:7840  09 0B 10 14 14 0F 0A 08 08 06 05 04 03 FF FA F4 
     718.  04:7850  F0 EC E7 D7 E1 EF FB 02 08 0E 11 10 0D 09 08 08 
     719.  04:7860                          db 0x09,0x08,0x07,0x06,0x05,0x04,0x02,0x02,0x01,0x01,0x00,0xFF,0xFE,0xFC,0xFA,0xF8,0xF6,0xF4,0xF3,0xF3,0xF4,0xF5,0xF8,0xFA,0xFE,0x01,0x04,0x06,0x08,0x09,0x09,0x09
     719.  04:7860  09 08 07 06 05 04 02 02 01 01 00 FF FE FC FA F8 
     719.  04:7870  F6 F4 F3 F3 F4 F5 F8 FA FE 01 04 06 08 09 09 09 
     720.  04:7880                          db 0x06,0x05,0x04,0x03,0x02,0x01,0x00,0x00,0x00,0x00,0x00,0xFF,0xFF,0xFE,0xFE,0xFD,0xFC,0xFB,0xFB,0xFB,0xFB,0xFB,0xFB,0xFD,0xFE,0x01,0x03,0x05,0x07,0x07,0x07,0x07
     720.  04:7880  06 05 04 03 02 01 00 00 00 00 00 FF FF FE FE FD 
     720.  04:7890  FC FB FB FB FB FB FB FD FE 01 03 05 07 07 07 07 
     721.  04:78A0                          db 0x00,0x01,0x00,0x00,0x00,0xFF,0xFF,0xFF,0xFF,0x02,0x03,0xFF,0x00,0x04,0x00,0xFD,0xFD,0xFB,0xFD,0xFD,0xFC,0xFE,0xFE,0xFE,0xFE,0xFF,0xFF,0x05,0x02,0x01,0x03,0x04
     721.  04:78A0  00 01 00 00 00 FF FF FF FF 02 03 FF 00 04 00 FD 
     721.  04:78B0  FD FB FD FD FC FE FE FE FE FF FF 05 02 01 03 04 
     722.  04:78C0                          db 0x0E,0x0A,0x0B,0x0C,0x0B,0x0C,0x0D,0x0D,0x0C,0x0C,0x09,0x06,0x05,0x00,0xFB,0xF5,0xF0,0xEB,0xE8,0xE5,0xE2,0xE9,0xEF,0xF0,0xFB,0xFF,0x03,0x0B,0x0B,0x09,0x07,0x08
     722.  04:78C0  0E 0A 0B 0C 0B 0C 0D 0D 0C 0C 09 06 05 00 FB F5 
     722.  04:78D0  F0 EB E8 E5 E2 E9 EF F0 FB FF 03 0B 0B 09 07 08 
     723.  04:78E0                          db 0xF6,0xF2,0xF7,0x03,0x19,0x2B,0x34,0x35,0x2B,0x1C,0x12,0x04,0xF9,0xF5,0xF0,0xEE,0xE5,0xDC,0xD1,0xC2,0xB8,0xC4,0xDC,0xED,0x00,0x17,0x20,0x26,0x25,0x18,0x0C,0x01
     723.  04:78E0  F6 F2 F7 03 19 2B 34 35 2B 1C 12 04 F9 F5 F0 EE 
     723.  04:78F0  E5 DC D1 C2 B8 C4 DC ED 00 17 20 26 25 18 0C 01 
     724.  04:7900                          db 0xF7,0xF7,0xFE,0x10,0x1F,0x2A,0x2E,0x27,0x1C,0x10,0x04,0xFB,0xF7,0xF5,0xF5,0xF4,0xED,0xE0,0xD3,0xC5,0xC0,0xCD,0xDE,0xF2,0x0B,0x18,0x20,0x25,0x1A,0x11,0x07,0xFA
     724.  04:7900  F7 F7 FE 10 1F 2A 2E 27 1C 10 04 FB F7 F5 F5 F4 
     724.  04:7910  ED E0 D3 C5 C0 CD DE F2 0B 18 20 25 1A 11 07 FA 
     725.  04:7920                          db 0x02,0x04,0x08,0x0C,0x0F,0x0F,0x0E,0x0A,0x0B,0x06,0x00,0xFD,0xFC,0xFC,0xFB,0xF9,0xF3,0xEE,0xE9,0xE4,0xE3,0xE8,0xED,0xF7,0x00,0x07,0x0D,0x0D,0x0D,0x09,0x05,0x04
     725.  04:7920  02 04 08 0C 0F 0F 0E 0A 0B 06 00 FD FC FC FB F9 
     725.  04:7930  F3 EE E9 E4 E3 E8 ED F7 00 07 0D 0D 0D 09 05 04 
     726.  04:7940                          db 0x01,0x01,0x01,0x02,0x02,0x02,0x02,0x02,0x01,0x01,0x00,0xFF,0xFF,0xFF,0xFF,0xFF,0xFF,0xFF,0xFF,0xFF,0xFF,0xFF,0xFF,0xFF,0x01,0x01,0x02,0x02,0x02,0x02,0x02,0x02
     726.  04:7940  01 01 01 02 02 02 02 02 01 01 00 FF FF FF FF FF 
     726.  04:7950  FF FF FF FF FF FF FF FF 01 01 02 02 02 02 02 02 
     727.  04:7960                          db 0x00,0x00,0x00,0x00,0x00,0x00,0x00,0x00,0x00,0x00,0x00,0x00,0x00,0x00,0x00,0x00,0x00,0x00,0x00,0x00,0x00,0x00,0x00,0x00,0x00,0x00,0x00,0x00,0x00,0x01,0x00,0x00
     727.  04:7960  00 00 00 00 00 00 00 00 00 00 00 00 00 00 00 00 
     727.  04:7970  00 00 00 00 00 00 00 00 00 00 00 00 00 01 00 00 
     728.  04:7980                          db 0x00,0x00,0x00,0x00,0x00,0x00,0x00,0x00,0x00,0x00,0x00,0x00,0x00,0x00,0x00,0x00,0x00,0x00,0x00,0x00,0x00,0x00,0x00,0x00,0x00,0x00,0x00,0x00,0x00,0x00,0x00,0x00
     728.  04:7980  00 00 00 00 00 00 00 00 00 00 00 00 00 00 00 00 
     728.  04:7990  00 00 00 00 00 00 00 00 00 00 00 00 00 00 00 00 
     729.  04:79A0                          db 0x00,0x00,0x00,0x00,0x00,0x00,0x00,0x00,0x00,0x00,0x00,0x00,0x00,0x00,0x00,0x00,0x00,0x00,0x00,0x00,0x00,0x00,0x00,0x00,0x00,0x00,0x00,0x00,0x00,0x00,0x00,0x00
     729.  04:79A0  00 00 00 00 00 00 00 00 00 00 00 00 00 00 00 00 
     729.  04:79B0  00 00 00 00 00 00 00 00 00 00 00 00 00 00 00 00 
     730.  04:79C0                          db 0x00,0x00,0x00,0x00,0x00,0x00,0x00,0x00,0x00,0x00,0x00,0x00,0x00,0x00,0x00,0x00,0x00,0x00,0x00,0x00,0x00,0x00,0x00,0x00,0x00,0x00,0x00,0x00,0x00,0x00,0x01,0x00
     730.  04:79C0  00 00 00 00 00 00 00 00 00 00 00 00 00 00 00 00 
     730.  04:79D0  00 00 00 00 00 00 00 00 00 00 00 00 00 00 01 00 
     731.  04:79E0                          db 0x00,0x00,0x00,0x00,0x00,0x00,0x00,0x00,0x00,0x00,0x00,0x00,0x00,0x00,0x00,0x00,0x00,0x00,0x00,0x00,0x00,0x00,0x00,0x00,0x00,0x00,0x00,0x00,0x00,0x00,0x00,0x00
     731.  04:79E0  00 00 00 00 00 00 00 00 00 00 00 00 00 00 00 00 
     731.  04:79F0  00 00 00 00 00 00 00 00 00 00 00 00 00 00 00 00 
     732.  04:7A00                          db 0xFF,0xFF,0xFD,0xFB,0xFF,0xFE,0xFD,0x00,0x01,0xFE,0x02,0x04,0x00,0x00,0x04,0x00,0x00,0x01,0xFF,0xFC,0xFF,0x00,0xFC,0xFF,0xFF,0xFF,0xFF,0x00,0xFF,0x01,0x0E,0x0E
     732.  04:7A00  FF FF FD FB FF FE FD 00 01 FE 02 04 00 00 04 00 
     732.  04:7A10  00 01 FF FC FF 00 FC FF FF FF FF 00 FF 01 0E 0E 
     733.  04:7A20                          db 0xFE,0x01,0x02,0xFE,0xFE,0xFF,0x00,0xFC,0xFE,0x01,0xFF,0x01,0x02,0x02,0x00,0x00,0x01,0x00,0xFF,0x00,0x00,0xFF,0xFE,0x01,0x01,0xFC,0x02,0x02,0x01,0x01,0x03,0x04
     733.  04:7A20  FE 01 02 FE FE FF 00 FC FE 01 FF 01 02 02 00 00 
     733.  04:7A30  01 00 FF 00 00 FF FE 01 01 FC 02 02 01 01 03 04 
     734.  04:7A40                          db 0xFE,0x00,0xFE,0x00,0x00,0xFE,0xFF,0xFE,0xFE,0x00,0x00,0x01,0x01,0x01,0x00,0xFF,0xFE,0xFF,0x00,0x00,0x02,0x00,0xFF,0xFF,0xFD,0xFE,0x00,0xFF,0x02,0x01,0x02,0x02
     734.  04:7A40  FE 00 FE 00 00 FE FF FE FE 00 00 01 01 01 00 FF 
     734.  04:7A50  FE FF 00 00 02 00 FF FF FD FE 00 FF 02 01 02 02 
     735.  04:7A60                          db 0x02,0xFF,0xFD,0xF9,0xF6,0xEF,0xEA,0xDE,0xE4,0xE4,0xE5,0xEE,0xF3,0xF3,0xFB,0xF7,0xFD,0x03,0x06,0x0B,0x0C,0x0D,0x0B,0x0B,0x0E,0x10,0x11,0x11,0x13,0x11,0x0D,0x08
     735.  04:7A60  02 FF FD F9 F6 EF EA DE E4 E4 E5 EE F3 F3 FB F7 
     735.  04:7A70  FD 03 06 0B 0C 0D 0B 0B 0E 10 11 11 13 11 0D 08 
     736.  04:7A80                          db 0x0D,0xFF,0xFD,0xF4,0xE9,0xE2,0xCD,0xC0,0xB8,0xA8,0xDA,0xFE,0x0E,0x2B,0x08,0xF8,0xF2,0xEB,0x08,0x18,0x23,0x28,0x14,0x18,0x15,0x19,0x21,0x24,0x26,0x24,0x1C,0x18
     736.  04:7A80  0D FF FD F4 E9 E2 CD C0 B8 A8 DA FE 0E 2B 08 F8 
     736.  04:7A90  F2 EB 08 18 23 28 14 18 15 19 21 24 26 24 1C 18 
     737.  04:7AA0                          db 0x0C,0x12,0x07,0xFC,0xF1,0xE0,0xCA,0xC5,0xB6,0xAC,0xB4,0x1B,0x35,0x31,0x1D,0xCF,0xD1,0xE7,0x0B,0x35,0x2C,0x18,0xFB,0xF9,0xFA,0x0C,0x29,0x38,0x34,0x1F,0x0D,0x07
     737.  04:7AA0  0C 12 07 FC F1 E0 CA C5 B6 AC B4 1B 35 31 1D CF 
     737.  04:7AB0  D1 E7 0B 35 2C 18 FB F9 FA 0C 29 38 34 1F 0D 07 
     738.  04:7AC0                          db 0x15,0x13,0x07,0xF9,0xF3,0xDE,0xCB,0xC0,0xB2,0xA7,0xC8,0x38,0x31,0x38,0xFB,0xC3,0xDA,0xF0,0x19,0x38,0x2A,0x0E,0xEE,0xE6,0x04,0x20,0x3A,0x34,0x1F,0x10,0x02,0x10
     738.  04:7AC0  15 13 07 F9 F3 DE CB C0 B2 A7 C8 38 31 38 FB C3 
     738.  04:7AD0  DA F0 19 38 2A 0E EE E6 04 20 3A 34 1F 10 02 10 
     739.  04:7AE0                          db 0x0F,0x12,0x0A,0x07,0xFD,0xE8,0xD5,0xC4,0xBA,0xB1,0xB9,0x22,0x2A,0x3C,0x0F,0xD7,0xDF,0xE1,0x0D,0x26,0x2A,0x1F,0xFC,0xF3,0xFA,0x0B,0x28,0x29,0x29,0x15,0x0B,0x0B
     739.  04:7AE0  0F 12 0A 07 FD E8 D5 C4 BA B1 B9 22 2A 3C 0F D7 
     739.  04:7AF0  DF E1 0D 26 2A 1F FC F3 FA 0B 28 29 29 15 0B 0B 
     740.  04:7B00                          db 0x0D,0x08,0x00,0xF7,0xE9,0xDF,0xD3,0xCE,0xC3,0xC9,0xEF,0xFF,0x19,0x13,0x0D,0x03,0xFE,0x01,0x04,0x0E,0x0D,0x0D,0x0C,0x0B,0x0E,0x10,0x13,0x12,0x10,0x0D,0x0D,0x0E
     740.  04:7B00  0D 08 00 F7 E9 DF D3 CE C3 C9 EF FF 19 13 0D 03 
     740.  04:7B10  FE 01 04 0E 0D 0D 0C 0B 0E 10 13 12 10 0D 0D 0E 
     741.  04:7B20                          db 0x04,0x02,0xFF,0xFC,0xFA,0xF8,0xF6,0xF5,0xF4,0xF4,0xF8,0xFC,0x00,0x04,0x04,0x05,0x04,0x04,0x03,0x03,0x03,0x01,0x05,0x06,0x06,0x06,0x06,0x03,0x02,0x02,0x03,0x04
     741.  04:7B20  04 02 FF FC FA F8 F6 F5 F4 F4 F8 FC 00 04 04 05 
     741.  04:7B30  04 04 03 03 03 01 05 06 06 06 06 03 02 02 03 04 
     742.  04:7B40                          db 0x00,0x00,0x00,0x00,0x00,0x00,0x00,0x00,0x00,0x00,0x00,0x00,0x00,0x00,0x00,0x00,0x00,0x00,0x00,0x00,0x00,0x00,0x00,0x00,0x00,0x00,0x00,0x00,0x00,0x00,0x00,0x00
     742.  04:7B40  00 00 00 00 00 00 00 00 00 00 00 00 00 00 00 00 
     742.  04:7B50  00 00 00 00 00 00 00 00 00 00 00 00 00 00 00 00 
     743.  04:7B60                          db 0x00,0x00,0x00,0x00,0x00,0x00,0x00,0x00,0x00,0x00,0x00,0x00,0x00,0x00,0x00,0x00,0x00,0x00,0x00,0x00,0x00,0x00,0x00,0x00,0x00,0x00,0x00,0x00,0x00,0x00,0x00,0x00
     743.  04:7B60  00 00 00 00 00 00 00 00 00 00 00 00 00 00 00 00 
     743.  04:7B70  00 00 00 00 00 00 00 00 00 00 00 00 00 00 00 00 
     744.  04:7B80                          db 0x00,0x00,0x00,0x00,0x00,0x00,0x00,0x00,0x00,0x00,0x00,0x00,0x00,0x00,0x00,0x00,0x00,0x00,0x00,0x00,0x00,0x00,0x00,0x00,0x00,0x00,0x00,0x00,0x00,0x00,0x00,0x00
     744.  04:7B80  00 00 00 00 00 00 00 00 00 00 00 00 00 00 00 00 
     744.  04:7B90  00 00 00 00 00 00 00 00 00 00 00 00 00 00 00 00 
     745.  04:7BA0                          db 0x00,0x00,0x00,0x00,0x00,0x00,0x00,0x00,0x00,0x00,0x00,0x00,0x00,0x00,0x00,0x00,0x00,0x00,0x00,0x00,0x00,0x00,0x00,0x00,0x00,0x00,0x00,0x00,0x00,0x00,0x00,0x01
     745.  04:7BA0  00 00 00 00 00 00 00 00 00 00 00 00 00 00 00 00 
     745.  04:7BB0  00 00 00 00 00 00 00 00 00 00 00 00 00 00 00 01 
     746.  04:7BC0                          db 0x00,0x00,0x00,0x00,0x00,0x00,0x00,0x00,0x00,0x00,0x00,0x00,0x00,0x00,0x00,0x00,0x00,0x00,0x00,0x00,0x00,0x00,0x00,0x00,0x00,0x00,0x00,0x00,0x00,0x00,0x00,0x00
     746.  04:7BC0  00 00 00 00 00 00 00 00 00 00 00 00 00 00 00 00 
     746.  04:7BD0  00 00 00 00 00 00 00 00 00 00 00 00 00 00 00 00 
     747.  04:7BE0                          db 0x00,0x00,0x00,0x00,0x00,0x00,0x00,0x00,0x00,0x00,0x00,0x00,0x00,0x00,0x00,0x00,0x00,0x00,0x00,0x00,0x00,0x00,0x00,0x00,0x00,0x00,0x00,0x00,0x00,0x00,0x00,0x00
     747.  04:7BE0  00 00 00 00 00 00 00 00 00 00 00 00 00 00 00 00 
     747.  04:7BF0  00 00 00 00 00 00 00 00 00 00 00 00 00 00 00 00 
     748.  04:7C00                          db 0x00,0x01,0x01,0xFD,0xFD,0xFD,0xFE,0xFC,0xFD,0xFF,0xFF,0xFF,0x01,0x02,0x01,0x00,0x01,0x01,0xFF,0xFF,0xFF,0xFE,0xFD,0xFE,0xFF,0xFD,0x00,0x04,0x03,0x05,0x06,0x06
     748.  04:7C00  00 01 01 FD FD FD FE FC FD FF FF FF 01 02 01 00 
     748.  04:7C10  01 01 FF FF FF FE FD FE FF FD 00 04 03 05 06 06 
     749.  04:7C20                          db 0x08,0x07,0x08,0x08,0x05,0x04,0xFF,0xFD,0xF7,0xF2,0xEE,0xE9,0xEC,0xEF,0xF3,0xF9,0xFB,0x00,0x00,0x00,0x01,0x00,0x01,0x00,0x04,0x07,0x0F,0x12,0x17,0x16,0x14,0x06
     749.  04:7C20  08 07 08 08 05 04 FF FD F7 F2 EE E9 EC EF F3 F9 
     749.  04:7C30  FB 00 00 00 01 00 01 00 04 07 0F 12 17 16 14 06 
     750.  04:7C40                          db 0x10,0x07,0x01,0xFD,0xFC,0xF9,0xF8,0xF2,0xE8,0xD6,0xC8,0xBD,0xCD,0xE0,0xFD,0x16,0x24,0x2D,0x23,0x19,0x0B,0x00,0xF1,0xEF,0xF0,0xFB,0x0B,0x1C,0x29,0x2C,0x27,0x1B
     750.  04:7C40  10 07 01 FD FC F9 F8 F2 E8 D6 C8 BD CD E0 FD 16 
     750.  04:7C50  24 2D 23 19 0B 00 F1 EF F0 FB 0B 1C 29 2C 27 1B 
     751.  04:7C60                          db 0x0D,0x0C,0x0F,0x13,0x14,0x11,0x06,0xFA,0xE8,0xD8,0xC8,0xBC,0xBB,0xD2,0xF2,0x11,0x26,0x2A,0x23,0x11,0xFF,0xEE,0xE8,0xEA,0xF5,0x04,0x13,0x1D,0x21,0x1F,0x19,0x12
     751.  04:7C60  0D 0C 0F 13 14 11 06 FA E8 D8 C8 BC BB D2 F2 11 
     751.  04:7C70  26 2A 23 11 FF EE E8 EA F5 04 13 1D 21 1F 19 12 
     752.  04:7C80                          db 0x0F,0x13,0x14,0x18,0x14,0x0C,0xFD,0xF2,0xE7,0xDF,0xD7,0xCE,0xC7,0xC9,0xEA,0x00,0x1E,0x1F,0x1F,0x0E,0x03,0xF2,0xF0,0xF1,0xFB,0x07,0x12,0x18,0x18,0x19,0x13,0x13
     752.  04:7C80  0F 13 14 18 14 0C FD F2 E7 DF D7 CE C7 C9 EA 00 
     752.  04:7C90  1E 1F 1F 0E 03 F2 F0 F1 FB 07 12 18 18 19 13 13 
     753.  04:7CA0                          db 0x0D,0x0F,0x12,0x15,0x15,0x0C,0x02,0xF6,0xEC,0xE6,0xE1,0xD7,0xD2,0xC8,0xDF,0xF8,0x11,0x1F,0x1C,0x15,0x04,0xF9,0xEE,0xF2,0xF6,0x04,0x0C,0x16,0x15,0x17,0x12,0x10
     753.  04:7CA0  0D 0F 12 15 15 0C 02 F6 EC E6 E1 D7 D2 C8 DF F8 
     753.  04:7CB0  11 1F 1C 15 04 F9 EE F2 F6 04 0C 16 15 17 12 10 
     754.  04:7CC0                          db 0x0B,0x0F,0x11,0x16,0x12,0x0A,0xFE,0xF4,0xEC,0xE5,0xE0,0xD8,0xD3,0xCE,0xE5,0xFA,0x13,0x1A,0x1A,0x11,0x04,0xF8,0xEF,0xF2,0xF7,0x05,0x0E,0x17,0x17,0x18,0x11,0x10
     754.  04:7CC0  0B 0F 11 16 12 0A FE F4 EC E5 E0 D8 D3 CE E5 FA 
     754.  04:7CD0  13 1A 1A 11 04 F8 EF F2 F7 05 0E 17 17 18 11 10 
     755.  04:7CE0                          db 0x0B,0x0D,0x0F,0x12,0x0D,0x07,0xFC,0xF4,0xEB,0xE4,0xDC,0xD6,0xD1,0xDA,0xF0,0x03,0x16,0x19,0x19,0x0E,0x05,0xF7,0xF4,0xF1,0xF9,0x03,0x0E,0x16,0x19,0x17,0x12,0x0D
     755.  04:7CE0  0B 0D 0F 12 0D 07 FC F4 EB E4 DC D6 D1 DA F0 03 
     755.  04:7CF0  16 19 19 0E 05 F7 F4 F1 F9 03 0E 16 19 17 12 0D 
     756.  04:7D00                          db 0x08,0x04,0x02,0x00,0xFF,0xFD,0xFB,0xF7,0xF2,0xED,0xE8,0xDC,0xDB,0xE7,0xF4,0x04,0x0E,0x14,0x14,0x0F,0x07,0xFF,0xFA,0xF8,0xFC,0x01,0x0B,0x11,0x17,0x16,0x13,0x0D
     756.  04:7D00  08 04 02 00 FF FD FB F7 F2 ED E8 DC DB E7 F4 04 
     756.  04:7D10  0E 14 14 0F 07 FF FA F8 FC 01 0B 11 17 16 13 0D 
     757.  04:7D20                          db 0x03,0x02,0x00,0xFF,0xFD,0xFA,0xF8,0xF7,0xF5,0xF4,0xF4,0xF4,0xF6,0xF9,0xFC,0xFF,0x03,0x05,0x08,0x09,0x0A,0x09,0x07,0x06,0x05,0x04,0x05,0x05,0x05,0x05,0x05,0x05
     757.  04:7D20  03 02 00 FF FD FA F8 F7 F5 F4 F4 F4 F6 F9 FC FF 
     757.  04:7D30  03 05 08 09 0A 09 07 06 05 04 05 05 05 05 05 05 
     758.  04:7D40                          db 0x00,0xFF,0xFE,0xFC,0xFB,0xFA,0xF9,0xF8,0xF8,0xF7,0xF7,0xF8,0xF9,0xFA,0xFD,0xFF,0x03,0x05,0x08,0x09,0x09,0x08,0x08,0x07,0x07,0x06,0x05,0x04,0x03,0x01,0x03,0x01
     758.  04:7D40  00 FF FE FC FB FA F9 F8 F8 F7 F7 F8 F9 FA FD FF 
     758.  04:7D50  03 05 08 09 09 08 08 07 07 06 05 04 03 01 03 01 
     482   04:7D60                      
     483   04:7D60  (00)                		page 0
     484   00:44B0                      
     485   00:44B0                      
     486   00:44B0                      ;-------------------------------------
     487   00:44B0                      		include checkkbd.asm
       1.  00:44B0                      
       2.  00:44B0                      ; // Line Bit_7 Bit_6 Bit_5 Bit_4 Bit_3 Bit_2 Bit_1 Bit_0
       3.  00:44B0                      ; // 0 	   "7"  "6"   "5"   "4"   "3"   "2"   "1"   "0"
       4.  00:44B0                      ; // 1 	   ";"  "]"   "["   "\"   "="   "-"   "9"   "8"
       5.  00:44B0                      ; // 2 	   "B"  "A"   ???   "/"   "."   ","   "'"   "`"
       6.  00:44B0                      ; // 3 	   "J"  "I"   "H"   "G"   "F"   "E"   "D"   "C"
       7.  00:44B0                      ; // 4 	   "R"  "Q"   "P"   "O"   "N"   "M"   "L"   "K"
       8.  00:44B0                      ; // 5 	   "Z"  "Y"   "X"   "W"   "V"   "U"   "T"   "S"
       9.  00:44B0                      ; // 6 	   F3 	 F2    F1  CODE   CAP  GRAPH  CTRL SHIFT
      10.  00:44B0                      ; // 7 	   RET  SEL    BS  STOP   TAB   ESC    F5    F4
      11.  00:44B0                      ; // 8 	   RIGHT DOWN  UP  LEFT   DEL   INS   HOME SPACE
      12.  00:44B0                      
      13.  00:44B0                      checkkbd:
      14.  00:44B0                      		; di
      15.  00:44B0  DB AA               		in	a,(0aah)
      16.  00:44B2  E6 F0               		and 011110000B			; upper 4 bits contain info to preserve
      17.  00:44B4  B3                  		or	e
      18.  00:44B5  D3 AA               		out (0aah),a
      19.  00:44B7  DB A9               		in	a,(0a9h)
      20.  00:44B9  6F                  		ld	l,a
      21.  00:44BA                      		; ei
      22.  00:44BA  C9                  		ret
     488   00:44BB                      
     489   00:44BB                      ;-------------------------------------
     490   00:44BB                      ; SCC and Slot management
     491   00:44BB                      ;-------------------------------------
     492   00:44BB                      		include rominit64.asm
       1.  00:44BB                      
       2.  00:44BB                      ;;;;;;;;;;;;;;;;;;;;;;;;;;;;;;;;;;;;;;;;;;;;;;;;;;;;;;;;;;;;;;;;;;;;;;
       3.  00:44BB                      ; set pages and subslot
       4.  00:44BB                      ;
       5.  00:44BB                      
       6.  00:44BB                      
       7.  00:44BB  (00:0024)           ENASLT:			equ		024h
       8.  00:44BB  (00:0138)           RSLREG:			equ		0138h
       9.  00:44BB  (00:FCC1)           EXPTBL:			equ		0FCC1h	; Bios Slot / Expansion Slot
      10.  00:44BB                      
      11.  00:44BB                      
      12.  00:44BB                      ; ----------------------------
      13.  00:44BB                      ; pre-set main slot for page 3
      14.  00:44BB                      ; and set sub-slot for page 3
      15.  00:44BB                      ; ----------------------------
      16.  00:44BB                      	macro	mainslot_setup n
      17.  00:44BB                    < 	and		3
      18.  00:44BB                    < [2]	rrca
      19.  00:44BB                    < 	and		0xC0
      20.  00:44BB                    < 	ld		c,a
      21.  00:44BB                    < 	ld		a,d
      22.  00:44BB                    < 	and		0x3F
      23.  00:44BB                    < 	or		c
      24.  00:44BB                    < 	ld		c,a					; Primary slot value with main slot in page 3
      25.  00:44BB                    < 
      26.  00:44BB                    < 	ld		a,b
      27.  00:44BB                    < 	and		0x0C
      28.  00:44BB                    < [2]	rrca
      29.  00:44BB                    < 	and		3
      30.  00:44BB                    < 	ld		b,a					; B = Expanded slot in page 3
      31.  00:44BB                    < 	ld		a,c
      32.  00:44BB                    < 	out		(0A8h),a			; Slot : Main Slot, xx, xx, Main slot
      33.  00:44BB                    < 	ld		a,(0FFFFh)
      34.  00:44BB                    < 	cpl
      35.  00:44BB                    < 	if (n<=4)
      36.  00:44BB                    < [n]	RLCA
      37.  00:44BB                    < 	else
      38.  00:44BB                    < [8-n] RRCA	
      39.  00:44BB                    < 	endif
      40.  00:44BB                    < 	and		0xFC
      41.  00:44BB                    < 	or		b
      42.  00:44BB                    < 	if (n<=4)
      43.  00:44BB                    < [n]	RRCA
      44.  00:44BB                    < 	else
      45.  00:44BB                    < [8-n] RLCA
      46.  00:44BB                    < 	endif
      47.  00:44BB                    < 	ld		(0FFFFh),a		; Expanded slot selected
      48.  00:44BB                    < 	ld		b,a				; save for later	
      49.  00:44BB                    < 	endmacro
      50.  00:44BB                      		
      51.  00:44BB                      
      52.  00:44BB                      ; ------------------------------
      53.  00:44BB                      ; SEARCH_SLOT
      54.  00:44BB                      ; look for the slot of our rom
      55.  00:44BB                      ; active in page 1
      56.  00:44BB                      ; ------------------------------
      57.  00:44BB                      
      58.  00:44BB                      search_slot:
      59.  00:44BB  CD 38 01            	call	RSLREG
      60.  00:44BE  0F 0F               [2]	rrca
      61.  00:44C0  E6 03               	and		3
      62.  00:44C2  4F                  	ld		c,a
      63.  00:44C3  06 00               	ld		b,0
      64.  00:44C5  21 C1 FC            	ld		hl,EXPTBL
      65.  00:44C8  09                  	add		hl,bc
      66.  00:44C9  7E                  	ld		a,(hl)
      67.  00:44CA  E6 80               	and		080h
      68.  00:44CC  B1                  	or		c
      69.  00:44CD  4F                  	ld		c,a
      70.  00:44CE  23 23 23 23         [4]	inc		hl
      71.  00:44D2  7E                  	ld		a,(hl)
      72.  00:44D3  E6 0C               	and		0Ch
      73.  00:44D5  B1                  	or		c
      74.  00:44D6  32 09 FD            	ld		(slotvar),a
      75.  00:44D9  C9                  	ret
      76.  00:44DA                      	
      77.  00:44DA                      ; ------------------------------
      78.  00:44DA                      ; look for the slot of ram
      79.  00:44DA                      ; active in page 3
      80.  00:44DA                      ; ------------------------------
      81.  00:44DA                      
      82.  00:44DA                      search_slotram:
      83.  00:44DA  F3                  	di
      84.  00:44DB  CD 38 01            	call	RSLREG
      85.  00:44DE  07 07               [2]	rlca
      86.  00:44E0  E6 03               	and		3
      87.  00:44E2  4F                  	ld		c,a
      88.  00:44E3  06 00               	ld		b,0
      89.  00:44E5  21 C1 FC            	ld		hl,EXPTBL
      90.  00:44E8  09                  	add		hl,bc
      91.  00:44E9  7E                  	ld		a,(hl)
      92.  00:44EA  E6 80               	and		080h
      93.  00:44EC  28 0D               	jr		z,search_slotram0
      94.  00:44EE  B1                  	or		c
      95.  00:44EF  4F                  	ld		c,a
      96.  00:44F0  23 23 23 23         [4]	inc		hl
      97.  00:44F4  7E                  	ld		a,(hl)
      98.  00:44F5  07 07 07 07         [4]	rlca
      99.  00:44F9  E6 0C               	and		0Ch
     100.  00:44FB                      search_slotram0:
     101.  00:44FB  B1                  	or		c
     102.  00:44FC  32 0A FD            	ld		(slotram),a
     103.  00:44FF  C9                  	ret
     104.  00:4500                      	
     105.  00:4500                      ; ------------------------------
     106.  00:4500                      ; SETROMPAGE0
     107.  00:4500                      ; Set the chart in
     108.  00:4500                      ; Page 0
     109.  00:4500                      ; -----------------------------
     110.  00:4500                      
     111.  00:4500                      setrompage0:
     112.  00:4500  3A 09 FD            	ld		a,(slotvar)
     113.  00:4503  C3 27 45            	jp		setslotpage0
     114.  00:4506                      
     115.  00:4506                      setrampage0:
     116.  00:4506  3A 0A FD            	ld		a,(slotram)
     117.  00:4509  C3 27 45            	jp		setslotpage0
     118.  00:450C                      
     119.  00:450C                      setrompage2:
     120.  00:450C  3A 09 FD            	ld		a,(slotvar)
     121.  00:450F  C3 9D 45            	jp		setslotpage2
     122.  00:4512                      
     123.  00:4512                      setrampage2:
     124.  00:4512  3A 0A FD            	ld		a,(slotram)
     125.  00:4515  C3 9D 45            	jp		setslotpage2
     126.  00:4518                      	
     127.  00:4518                      setrompage3:
     128.  00:4518  3A 09 FD            	ld		a,(slotvar)
     129.  00:451B  C3 E4 45            	jp		setslotpage3
     130.  00:451E                      
     131.  00:451E                      setrampage3:
     132.  00:451E  3A 0A FD            	ld		a,(slotram)
     133.  00:4521  C3 E4 45            	jp		setslotpage3
     134.  00:4524                      	
     135.  00:4524                      ; ------------------------------
     136.  00:4524                      ; RECBIOS
     137.  00:4524                      ; set the bios ROM
     138.  00:4524                      ; -------------------------------
     139.  00:4524                      recbios:
     140.  00:4524  3A C1 FC            	ld		a,(EXPTBL)
     141.  00:4527                      
     142.  00:4527                      ; ---------------------------
     143.  00:4527                      ; SETSLOTPAGE0
     144.  00:4527                      ; Set the slot passed in A
     145.  00:4527                      ; at page 0 in the Z80 address space
     146.  00:4527                      ; A: Format FxxxSSPP
     147.  00:4527                      ; ----------------------------
     148.  00:4527                      
     149.  00:4527                      setslotpage0:
     150.  00:4527  F3                  	di
     151.  00:4528  47                  	ld		b,a					; B = Slot param in FxxxSSPP format
     152.  00:4529  DB A8               	in		a,(0A8h)
     153.  00:452B  E6 FC               	and		0xFC
     154.  00:452D  57                  	ld		d,a					; D = Primary slot value
     155.  00:452E  78                  	ld		a,b
     156.  00:452F  E6 03               	and		3
     157.  00:4531  B2                  	or		d
     158.  00:4532  57                  	ld		d,a		; D = Final Value for primary slot
     159.  00:4533  78                  	ld		a,b		; Check if expanded
     160.  00:4534  CB 7F               	bit		7,a
     161.  00:4536  28 22               	jr		z,1f	; Not Expanded
     162.  00:4538                      	mainslot_setup	0
     162.  00:4538  E6 03             >  and  3
     162.  00:453A  0F 0F             > [2] rrca
     162.  00:453C  E6 C0             >  and  0xC0
     162.  00:453E  4F                >  ld  c,a
     162.  00:453F  7A                >  ld  a,d
     162.  00:4540  E6 3F             >  and  0x3F
     162.  00:4542  B1                >  or  c
     162.  00:4543  4F                >  ld  c,a
     162.  00:4544                    > 
     162.  00:4544  78                >  ld  a,b
     162.  00:4545  E6 0C             >  and  0x0C
     162.  00:4547  0F 0F             > [2] rrca
     162.  00:4549  E6 03             >  and  3
     162.  00:454B  47                >  ld  b,a
     162.  00:454C  79                >  ld  a,c
     162.  00:454D  D3 A8             >  out  (0A8h),a
     162.  00:454F  3A FF FF          >  ld  a,(0FFFFh)
     162.  00:4552  2F                >  cpl
     162.  00:4553                    >  if (n<=4)
     162.  00:4553                    > [n] RLCA
     162.  00:4553                    >  else
     162.  00:4553                    ~ [8-n] RRCA
     162.  00:4553                    ~  endif
     162.  00:4553  E6 FC             >  and  0xFC
     162.  00:4555  B0                >  or  b
     162.  00:4556                    >  if (n<=4)
     162.  00:4556                    > [n] RRCA
     162.  00:4556                    >  else
     162.  00:4556                    ~ [8-n] RLCA
     162.  00:4556                    ~  endif
     162.  00:4556  32 FF FF          >  ld  (0FFFFh),a
     162.  00:4559  47                >  ld  b,a
     163.  00:455A  7A                  1:	ld		a,d				; A = Final value
     164.  00:455B  D3 A8               	out		(0A8h),a		; Slot Final. Ram, rom c, rom c, Main
     165.  00:455D  C9                  	ret
     166.  00:455E                      
     167.  00:455E                      ; ---------------------------
     168.  00:455E                      ; SETSLOTPAGE1
     169.  00:455E                      ; Set the slot passed in A
     170.  00:455E                      ; at page 1 in the Z80 address space
     171.  00:455E                      ; A: Format FxxxSSPP
     172.  00:455E                      ; ----------------------------
     173.  00:455E                      
     174.  00:455E                      setslotpage1:
     175.  00:455E  F3                  	di
     176.  00:455F  47                  	ld		b,a					; B = Slot param in FxxxSSPP format
     177.  00:4560  DB A8               	in		a,(0A8h)
     178.  00:4562  0F 0F               [2]	RRCA
     179.  00:4564  E6 FC               	and		0xFC
     180.  00:4566  57                  	ld		d,a					; D = Primary slot value
     181.  00:4567  78                  	ld		a,b
     182.  00:4568  E6 03               	and		3
     183.  00:456A  B2                  	or		d
     184.  00:456B  07 07               [2]	RLCA
     185.  00:456D  57                  	ld		d,a		; D = Final Value for primary slot
     186.  00:456E  78                  	ld		a,b		; Check if expanded
     187.  00:456F  CB 7F               	bit		7,a
     188.  00:4571  28 26               	jr		z,1f	; Not Expanded
     189.  00:4573                      	mainslot_setup	6
     189.  00:4573  E6 03             >  and  3
     189.  00:4575  0F 0F             > [2] rrca
     189.  00:4577  E6 C0             >  and  0xC0
     189.  00:4579  4F                >  ld  c,a
     189.  00:457A  7A                >  ld  a,d
     189.  00:457B  E6 3F             >  and  0x3F
     189.  00:457D  B1                >  or  c
     189.  00:457E  4F                >  ld  c,a
     189.  00:457F                    > 
     189.  00:457F  78                >  ld  a,b
     189.  00:4580  E6 0C             >  and  0x0C
     189.  00:4582  0F 0F             > [2] rrca
     189.  00:4584  E6 03             >  and  3
     189.  00:4586  47                >  ld  b,a
     189.  00:4587  79                >  ld  a,c
     189.  00:4588  D3 A8             >  out  (0A8h),a
     189.  00:458A  3A FF FF          >  ld  a,(0FFFFh)
     189.  00:458D  2F                >  cpl
     189.  00:458E                    >  if (n<=4)
     189.  00:458E                    ~ [n] RLCA
     189.  00:458E                    ~  else
     189.  00:458E  0F 0F             > [8-n] RRCA
     189.  00:4590                    >  endif
     189.  00:4590  E6 FC             >  and  0xFC
     189.  00:4592  B0                >  or  b
     189.  00:4593                    >  if (n<=4)
     189.  00:4593                    ~ [n] RRCA
     189.  00:4593                    ~  else
     189.  00:4593  07 07             > [8-n] RLCA
     189.  00:4595                    >  endif
     189.  00:4595  32 FF FF          >  ld  (0FFFFh),a
     189.  00:4598  47                >  ld  b,a
     190.  00:4599  7A                  1:	ld		a,d				; A = Final value
     191.  00:459A  D3 A8               	out		(0A8h),a		; Slot Final. Ram, rom c, rom c, Main
     192.  00:459C  C9                  	ret
     193.  00:459D                      	
     194.  00:459D                      
     195.  00:459D                      ; ---------------------------
     196.  00:459D                      ; SETSLOTPAGE2
     197.  00:459D                      ; Set the slot passed in A
     198.  00:459D                      ; at page 2 in the Z80 address space
     199.  00:459D                      ; A: Format FxxxSSPP
     200.  00:459D                      ; ----------------------------
     201.  00:459D                      
     202.  00:459D                      setslotpage2:
     203.  00:459D  F3                  	di
     204.  00:459E  47                  	ld		b,a					; B = Slot param in FxxxSSPP format
     205.  00:459F  DB A8               	in		a,(0A8h)
     206.  00:45A1  07 07 07 07         [4]	RLCA
     207.  00:45A5  E6 FC               	and		0xFC
     208.  00:45A7  57                  	ld		d,a					; D = Primary slot value
     209.  00:45A8  78                  	ld		a,b
     210.  00:45A9  E6 03               	and		3
     211.  00:45AB  B2                  	or		d
     212.  00:45AC  0F 0F 0F 0F         [4]	RRCA
     213.  00:45B0  57                  	ld		d,a		; D = Final Value for primary slot
     214.  00:45B1  78                  	ld		a,b		; Check if expanded
     215.  00:45B2  CB 7F               	bit		7,a
     216.  00:45B4  28 2A               	jr		z,1f	; Not Expanded
     217.  00:45B6                      	mainslot_setup	4
     217.  00:45B6  E6 03             >  and  3
     217.  00:45B8  0F 0F             > [2] rrca
     217.  00:45BA  E6 C0             >  and  0xC0
     217.  00:45BC  4F                >  ld  c,a
     217.  00:45BD  7A                >  ld  a,d
     217.  00:45BE  E6 3F             >  and  0x3F
     217.  00:45C0  B1                >  or  c
     217.  00:45C1  4F                >  ld  c,a
     217.  00:45C2                    > 
     217.  00:45C2  78                >  ld  a,b
     217.  00:45C3  E6 0C             >  and  0x0C
     217.  00:45C5  0F 0F             > [2] rrca
     217.  00:45C7  E6 03             >  and  3
     217.  00:45C9  47                >  ld  b,a
     217.  00:45CA  79                >  ld  a,c
     217.  00:45CB  D3 A8             >  out  (0A8h),a
     217.  00:45CD  3A FF FF          >  ld  a,(0FFFFh)
     217.  00:45D0  2F                >  cpl
     217.  00:45D1                    >  if (n<=4)
     217.  00:45D1  07 07 07 07       > [n] RLCA
     217.  00:45D5                    >  else
     217.  00:45D5                    ~ [8-n] RRCA
     217.  00:45D5                    ~  endif
     217.  00:45D5  E6 FC             >  and  0xFC
     217.  00:45D7  B0                >  or  b
     217.  00:45D8                    >  if (n<=4)
     217.  00:45D8  0F 0F 0F 0F       > [n] RRCA
     217.  00:45DC                    >  else
     217.  00:45DC                    ~ [8-n] RLCA
     217.  00:45DC                    ~  endif
     217.  00:45DC  32 FF FF          >  ld  (0FFFFh),a
     217.  00:45DF  47                >  ld  b,a
     218.  00:45E0  7A                  1:	ld		a,d				; A = Final value
     219.  00:45E1  D3 A8               	out		(0A8h),a		; Slot Final. Ram, rom c, rom c, Main
     220.  00:45E3  C9                  	ret
     221.  00:45E4                      	
     222.  00:45E4                      ; ---------------------------
     223.  00:45E4                      ; SETSLOTPAGE3
     224.  00:45E4                      ; Set the slot passed in A
     225.  00:45E4                      ; at page 3 in the Z80 address space
     226.  00:45E4                      ; A: Format FxxxSSPP
     227.  00:45E4                      ; ----------------------------
     228.  00:45E4                      	
     229.  00:45E4                      setslotpage3:
     230.  00:45E4  F3                  	di
     231.  00:45E5  47                  	ld		b,a					; B = Slot param in FxxxSSPP format
     232.  00:45E6  DB A8               	in		a,(0A8h)
     233.  00:45E8  07 07               [2]	RLCA
     234.  00:45EA  E6 FC               	and		0xFC
     235.  00:45EC  57                  	ld		d,a					; D = Primary slot value
     236.  00:45ED  78                  	ld		a,b
     237.  00:45EE  E6 03               	and		3
     238.  00:45F0  B2                  	or		d
     239.  00:45F1  0F 0F               [2]	RRCA	
     240.  00:45F3  57                  	ld		d,a		; D = Final Value for primary slot
     241.  00:45F4  78                  	ld		a,b		; Check if expanded
     242.  00:45F5  CB 7F               	bit		7,a
     243.  00:45F7  28 26               	jr		z,1f	; Not Expanded
     244.  00:45F9                      	mainslot_setup	2
     244.  00:45F9  E6 03             >  and  3
     244.  00:45FB  0F 0F             > [2] rrca
     244.  00:45FD  E6 C0             >  and  0xC0
     244.  00:45FF  4F                >  ld  c,a
     244.  00:4600  7A                >  ld  a,d
     244.  00:4601  E6 3F             >  and  0x3F
     244.  00:4603  B1                >  or  c
     244.  00:4604  4F                >  ld  c,a
     244.  00:4605                    > 
     244.  00:4605  78                >  ld  a,b
     244.  00:4606  E6 0C             >  and  0x0C
     244.  00:4608  0F 0F             > [2] rrca
     244.  00:460A  E6 03             >  and  3
     244.  00:460C  47                >  ld  b,a
     244.  00:460D  79                >  ld  a,c
     244.  00:460E  D3 A8             >  out  (0A8h),a
     244.  00:4610  3A FF FF          >  ld  a,(0FFFFh)
     244.  00:4613  2F                >  cpl
     244.  00:4614                    >  if (n<=4)
     244.  00:4614  07 07             > [n] RLCA
     244.  00:4616                    >  else
     244.  00:4616                    ~ [8-n] RRCA
     244.  00:4616                    ~  endif
     244.  00:4616  E6 FC             >  and  0xFC
     244.  00:4618  B0                >  or  b
     244.  00:4619                    >  if (n<=4)
     244.  00:4619  0F 0F             > [n] RRCA
     244.  00:461B                    >  else
     244.  00:461B                    ~ [8-n] RLCA
     244.  00:461B                    ~  endif
     244.  00:461B  32 FF FF          >  ld  (0FFFFh),a
     244.  00:461E  47                >  ld  b,a
     245.  00:461F  7A                  1:	ld		a,d				; A = Final value
     246.  00:4620  D3 A8               	out		(0A8h),a		; Slot Final. Ram, rom c, rom c, Main
     247.  00:4622  C9                  	ret
     248.  00:4623                      
     249.  00:4623                      	
     493   00:4623                      		include sccdetec.asm
       1.  00:4623                      
       2.  00:4623                       ; ====================
       3.  00:4623                       ;    Initialization
       4.  00:4623                       ; ====================
       5.  00:4623                      SCCsearch
       6.  00:4623  21 5E 46             	ld	hl,begin
       7.  00:4626  11 00 C0             	ld	de,0C000H
       8.  00:4629  01 7E 00             	ld	bc,end-begin+1
       9.  00:462C  ED B0                	ldir
      10.  00:462E  CD 00 C0             	call	0C000H
      11.  00:4631  78                   	ld	a,b
      12.  00:4632  32 0B FD             	ld	(SCC),a
      13.  00:4635  C9                   	ret
      14.  00:4636                       
      15.  00:4636                       ; SLOT            .db     0
      16.  00:4636                       ; PAGE1RAM        .db     0
      17.  00:4636                       ; RAMSLOT         .db     0
      18.  00:4636                       
      19.  00:4636                       ; SCC             .db     0
      20.  00:4636                       ; SUB             .db     0FFH
      21.  00:4636                       
      22.  00:4636                       
      23.  00:4636                      en_scc:
      24.  00:4636  3A 0B FD            	ld	a,[SCC]
      25.  00:4639  3C                  	inc	a
      26.  00:463A  C8                  	ret	z			; no scc
      27.  00:463B                      
      28.  00:463B  DB A8               	in	a,(0xA8)	; Leemos el registro principal de slots
      29.  00:463D  32 0C FD            	ld	(curslot),a	; save it
      30.  00:4640  3A FF FF            	ld	a,(0xFFFF)
      31.  00:4643  2F                  	cpl
      32.  00:4644  32 0D FD            	ld	(cursubslots),a
      33.  00:4647  3A 0B FD            	ld	a,[SCC]
      34.  00:464A  C3 9D 45            	jp setslotpage2
      35.  00:464D                      
      36.  00:464D                      ;	in	a,(0xA8)	; Leemos el registro principal de slots
      37.  00:464D                      ;	ld	(curslot),a	; save it
      38.  00:464D                      ;	ld	e,a
      39.  00:464D                      ;	ld	a,(SCC)
      40.  00:464D                      ;	and	0x03		; Nos fijamos en el slot primario
      41.  00:464D                      ;[4]	add	a,a
      42.  00:464D                      ;	ld	d,a
      43.  00:464D                      ;	ld	a,e			; registro principal de slots
      44.  00:464D                      ;	and	11001111b
      45.  00:464D                      ;	or	d
      46.  00:464D                      ;	out (0xA8),a
      47.  00:464D                      ;	; ld	(sccslots),a
      48.  00:464D                      ;	; ld	a,(0xFFFF)
      49.  00:464D                      ;	; cpl
      50.  00:464D                      ;	; ld	(sccsubslots),a
      51.  00:464D                      ;	ret
      52.  00:464D                      	
      53.  00:464D                      en_slot:
      54.  00:464D  3A 0B FD            	ld	a,[SCC]
      55.  00:4650  3C                  	inc	a
      56.  00:4651  C8                  	ret	z			; no scc
      57.  00:4652                      
      58.  00:4652  3A 0C FD            	ld	a,(curslot)
      59.  00:4655  D3 A8               	out (0xA8),a
      60.  00:4657  3A 0D FD            	ld	a,(cursubslots)
      61.  00:465A  32 FF FF            	ld	(0xFFFF),a
      62.  00:465D  C9                  	ret
      63.  00:465E                      
      64.  00:465E                      
      65.  00:465E                      	
      66.  00:465E                      ; ---------------------------
      67.  00:465E                      
      68.  00:465E                      ;------------------------------------------------------------
      69.  00:465E                      ; SCC-search v1.0
      70.  00:465E                      ; by Alwin Henseler
      71.  00:465E                      ; using method described in bulletin # 18 MSX-club Enschede
      72.  00:465E                      ; input: none
      73.  00:465E                      ; output: B=slot that contains SCC (=255 if no SCC found)
      74.  00:465E                      
      75.  00:465E  (00:0024)           enaslt:          equ #0024
      76.  00:465E  (00:FCC1)           exptbl:          equ #fcc1
      77.  00:465E  (00:FCC5)           slttbl:          equ #fcc5
      78.  00:465E                      
      79.  00:465E                      begin:
      80.  00:465E  (C000)              	MAP #c000
      81.  00:465E  DB A8               	in a,(#a8)        ; read prim. slotregister
      82.  00:4660  1F                  	rra
      83.  00:4661  1F                  	rra
      84.  00:4662  1F                  	rra
      85.  00:4663  1F                  	rra
      86.  00:4664  E6 03               	and %00000011     ; A = prim.slot page 2
      87.  00:4666  06 00               	ld b,0
      88.  00:4668  4F                  	ld c,a
      89.  00:4669  21 C1 FC            	ld hl,exptbl
      90.  00:466C  09                  	add hl,bc
      91.  00:466D  CB 7E               	bit 7,(hl)        ; page 2-slot expanded ?
      92.  00:466F  28 0C               	jr z,scctest
      93.  00:4671  21 C5 FC            	ld hl,slttbl
      94.  00:4674  09                  	add hl,bc
      95.  00:4675  7E                  	ld a,(hl)         ; A = sec.sel.reg. of page 2-slot
      96.  00:4676  1F                  	rra
      97.  00:4677  1F                  	rra
      98.  00:4678  E6 0C               	and %00001100     ; bit 1/2 = sec.slot page 2
      99.  00:467A  B1                  	or c
     100.  00:467B  CB FF               	set 7,a           ; compose sec.slot-code
     101.  00:467D                      scctest:
     102.  00:467D  F5                  	push af           ; save page 2-slot on the stack
     103.  00:467E  3A C1 FC            	ld a,(exptbl)     ; 1st slot to test
     104.  00:4681                      
     105.  00:4681                      testslot:        
     106.  00:4681  F5                  	push af           ; save test-slot on the stack
     107.  00:4682  26 80               	ld h,#80
     108.  00:4684  CD 24 00            	call enaslt       ; switch slot-to-test in 8000-bfffh
     109.  00:4687  21 00 90            	ld hl,#9000
     110.  00:468A  46                  	ld b,(hl)         ; save contents of address 9000h
     111.  00:468B  36 3F               	ld (hl),#3f       ; activate SCC (if present)
     112.  00:468D                      
     113.  00:468D  AF                  	xor	a
     114.  00:468E  32 FE BF            	ld (0xbffe),a	  ; scc+ patch for bluemsx
     115.  00:4691                      
     116.  00:4691  26 9C               	ld h,#9c          ; address of SCC-register mirrors
     117.  00:4693  11 00 98            	ld de,#9800       ; 9800h = address of SCC-registers
     118.  00:4696                      testreg:         
     119.  00:4696  1A                  	ld a,(de)
     120.  00:4697  4F                  	ld c,a            ; save contents of address 98xxh
     121.  00:4698  7E                  	ld a,(hl)         ; read byte from address 9cxxh
     122.  00:4699  2F                  	cpl               ; and invert it
     123.  00:469A  12                  	ld (de),a         ; write inverted byte to 98xxh
     124.  00:469B  BE                  	cp (hl)           ; same value on 9cxxh ?
     125.  00:469C  79                  	ld a,c
     126.  00:469D  12                  	ld (de),a         ; restore value on 98xxh
     127.  00:469E  20 0D               	jr nz,nextslot    ; unequal -> no SCC -> continue search
     128.  00:46A0  23                  	inc hl
     129.  00:46A1  13                  	inc de            ; next test-addresses
     130.  00:46A2  CB 7D               	bit 7,l           ; 128 addresses (registers) tested ?
     131.  00:46A4  28 F0               	jr z,testreg      ; no -> repeat mirror-test
     132.  00:46A6  78                  	ld a,b
     133.  00:46A7  32 00 90            	ld (#9000),a      ; restore value on 9000h
     134.  00:46AA  C1                  	pop bc            ; retrieve slotcode (=SCC-slot) from stack
     135.  00:46AB  18 24               	jr done           ; SCC found, restore page 2-slot & return
     136.  00:46AD                      
     137.  00:46AD                      nextslot:
     138.  00:46AD  78                  	ld a,b
     139.  00:46AE  32 00 90            	ld (#9000),a      ; restore value on 9000h
     140.  00:46B1  C1                  	pop bc            ; retrieve slotcode from stack
     141.  00:46B2  CB 78               	bit 7,b           ; test-slot = sec.slot ?
     142.  00:46B4  28 07               	jr z,nextprim
     143.  00:46B6  78                  	ld a,b
     144.  00:46B7  C6 04               	add a,4           ; increase sec.slotnumber
     145.  00:46B9  CB 67               	bit 4,a           ; sec.slot = 4 ?
     146.  00:46BB  28 C4               	jr z,testslot
     147.  00:46BD                      nextprim:
     148.  00:46BD  78                  	ld a,b
     149.  00:46BE  E6 03               	and %00000011
     150.  00:46C0  FE 03               	cp 3              ; prim.slot = 3 ?
     151.  00:46C2  28 0B               	jr z,noscc
     152.  00:46C4  3C                  	inc a             ; increase prim.slotnumber
     153.  00:46C5  16 00               	ld d,0
     154.  00:46C7  5F                  	ld e,a
     155.  00:46C8  21 C1 FC            	ld hl,exptbl
     156.  00:46CB  19                  	add hl,de
     157.  00:46CC  B6                  	or (hl)           ; combine slot-expansion with slotcode
     158.  00:46CD  18 B2               	jr testslot
     159.  00:46CF                      
     160.  00:46CF                      noscc:           
     161.  00:46CF  06 FF               	ld b,255          ; code for no SCC
     162.  00:46D1                      done:            
     163.  00:46D1  F1                  	pop af            ; retrieve page 2-slot from stack
     164.  00:46D2  C5                  	push bc
     165.  00:46D3  26 80               	ld h,#80
     166.  00:46D5  CD 24 00            	call enaslt       ; restore original page 2-slot
     167.  00:46D8  C1                  	pop bc
     168.  00:46D9  FB                  	ei
     169.  00:46DA  C9                  	ret
     170.  00:46DB                      end:
     171.  00:46DB  (0000)              	endmap				 
     172.  00:46DB                      ; -------------------------------------------------------------
     173.  00:46DB                      
     494   00:46DB                      
     495   00:46DB                      ;-------------------------------------
     496   00:46DB                      
     497   00:46DB                      FINISH:
     498   00:46DB                      
     499   00:46DB                      
     500   00:46DB                      ;---------------------------------------------------------
     501   00:46DB                      ; Variables
     502   00:46DB                      ;---------------------------------------------------------
     503   00:46DB  (FD09)              					map 0xFD09		; unused ram
     504   00:46DB                      
     505   00:46DB  (00:FD09)           slotvar:            #1
     506   00:46DB  (00:FD0A)           slotram:            #1
     507   00:46DB  (00:FD0B)           SCC:            	#1
     508   00:46DB  (00:FD0C)           curslot:            #1
     509   00:46DB  (00:FD0D)           cursubslots:		#1
     510   00:46DB                      
     511   00:46DB  (00:FD0E)           USR0:				#5
     512   00:46DB                      
     513   00:46DB  (00:FD13)           S988F:           	#1				; ram mirror of 988Fh
     514   00:46DB                      
     515   00:46DB  (00:FD14)           PAG_FRAME1			#1
     516   00:46DB  (00:FD15)           PAG_PERIOD1			#1
     517   00:46DB  (00:FD16)           PNT_FRAME1			#2
     518   00:46DB  (00:FD18)           PNT_PERIOD1			#2
     519   00:46DB                      
     520   00:46DB  (00:FD1A)           PAG_FRAME2			#1
     521   00:46DB  (00:FD1B)           PAG_PERIOD2			#1
     522   00:46DB  (00:FD1C)           PNT_FRAME2			#2
     523   00:46DB  (00:FD1E)           PNT_PERIOD2			#2
     524   00:46DB                      
     525   00:46DB  (00:FD20)           PAG_FRAME3			#1
     526   00:46DB  (00:FD21)           PAG_PERIOD3			#1
     527   00:46DB  (00:FD22)           PNT_FRAME3			#2
     528   00:46DB  (00:FD24)           PNT_PERIOD3			#2
     529   00:46DB                      
     530   00:46DB  (00:FD26)           PAG_FRAME4			#1
     531   00:46DB  (00:FD27)           PAG_PERIOD4			#1
     532   00:46DB  (00:FD28)           PNT_FRAME4			#2
     533   00:46DB  (00:FD2A)           PNT_PERIOD4			#2
     534   00:46DB                      
     535   00:46DB  (0000)              					endmap
     536   00:46DB                      

    LABELS
-------------------------------------------------
00:FFFFFFFF X frame_terminator
00:00006000   Bank1
00:00006800   Bank2
00:00007000   Bank3
00:00007800   Bank4
00:00005000   sccBank1
00:00007000   sccBank2
00:00009000   sccBank3
00:0000B000   sccBank4
00:0000400E   init_mapper
00:0000402C   START
00:0000404E X no_scc
00:0000405B   scc_install
00:00004071   waitforhalfsec
00:00004077   PrintNum
00:000040C1   Numbers
00:000040D1   PrintSlots
00:00004117   message
00:00004129   noSCC_text
00:0000413A   instruction_text
00:00004155   scc_slot_text
00:00004160   rom_slot_text
00:0000416B   ram_slot_text
00:00004176   InstallIntHanlderScc
00:000041AB   HandleUsr
00:000041DD   test_ch2
00:000041F3   test_ch3
00:00004209   test_ch4
00:0000421E   ch_error
00:00004225   ISRScc
00:00004257   ReplayerUpdateScc1
00:000042D7   ReplayerNextPage1
00:000042DF   SCCReplayerMute1
00:000042EB   ReplayerUpdateScc2
00:0000436B   ReplayerNextPage2
00:00004373   SCCReplayerMute2
00:0000437F   ReplayerUpdateScc3
00:000043FF   ReplayerNextPage3
00:00004407   SCCReplayerMute3
00:00004413   ReplayerUpdateScc4
00:00004493   ReplayerNextPage4
00:0000449B   SCCReplayerMute4
00:000044A7   SCCReplayerMute
00:000044AF   SccInit
00:000046DB   frames
00:00000004   nfiles
01:000064E2   period1
01:000061D8   period2
01:000063A4   period3
01:00006000   period4
04:0000ADC0   data1
04:00007D60   data2
04:00009A00   data3
04:00006000   data4
00:000044B0 X checkkbd
00:00000024 X ENASLT
00:00000138   RSLREG
00:0000FCC1   EXPTBL
00:000044BB   search_slot
00:000044DA   search_slotram
00:000044FB   search_slotram0
00:00004500 X setrompage0
00:00004506 X setrampage0
00:0000450C X setrompage2
00:00004512 X setrampage2
00:00004518 X setrompage3
00:0000451E X setrampage3
00:00004524 X recbios
00:00004527   setslotpage0
00:0000455E X setslotpage1
00:0000459D   setslotpage2
00:000045E4   setslotpage3
00:00004623   SCCsearch
00:00004636   en_scc
00:0000464D   en_slot
00:00000024   enaslt
00:0000FCC1   exptbl
00:0000FCC5   slttbl
00:0000465E   begin
00:0000467D   scctest
00:00004681   testslot
00:00004696   testreg
00:000046AD   nextslot
00:000046BD   nextprim
00:000046CF   noscc
00:000046D1   done
00:000046DB   end
00:000046DB X FINISH
00:0000FD09   slotvar
00:0000FD0A   slotram
00:0000FD0B   SCC
00:0000FD0C   curslot
00:0000FD0D   cursubslots
00:0000FD0E   USR0
00:0000FD13   S988F
00:0000FD14   PAG_FRAME1
00:0000FD15   PAG_PERIOD1
00:0000FD16   PNT_FRAME1
00:0000FD18   PNT_PERIOD1
00:0000FD1A   PAG_FRAME2
00:0000FD1B   PAG_PERIOD2
00:0000FD1C   PNT_FRAME2
00:0000FD1E   PNT_PERIOD2
00:0000FD20   PAG_FRAME3
00:0000FD21   PAG_PERIOD3
00:0000FD22   PNT_FRAME3
00:0000FD24   PNT_PERIOD3
00:0000FD26   PAG_FRAME4
00:0000FD27   PAG_PERIOD4
00:0000FD28   PNT_FRAME4
00:0000FD2A   PNT_PERIOD4


 Output: src\sccLOFI_1c.out
-------------------------------------------------

 Page: 00
  Org: 00004000  Size: *  Used: 00000000

    No output

 Output: sccLOFI_1c.rom
-------------------------------------------------

 Page: 00
  Org: 00004000  Size: 00002000  Used: 000006F3

   Address   Length Align   Label
   00004000    1200         init_mapper
   000044B0     555         checkkbd
   000046DB      24         frames
   000046F3    6413       <empty>

 Page: 01
  Org: 00006000  Size: 00002000  Used: 000005E4

   Address   Length Align   Label
   00006000     472         period4
   000061D8     460         period2
   000063A4     318         period3
   000064E2     258         period1
   000065E4    6684       <empty>

 Page: 02
  Org: 00006000  Size: 00002000  Used: 00000000

   00006000    8192       <empty>

 Page: 03
  Org: 00006000  Size: 00002000  Used: 00000000

   00006000    8192       <empty>

 Page: 04
  Org: 00006000  Size: 00078000  Used: 00005DC0

   Address   Length Align   Label
   00006000    7520         data4
   00007D60    7328         data2
   00009A00    5056         data3
   0000ADC0    4096         data1
   0000BDC0  467520       <empty>
